(S'svmguide1'
p0
(lp1
I24
aI580
aI328
aI85
aI36
aI601
aI119
aI767
aI822
aI590
aI286
aI202
aI299
aI697
aI147
aI888
aI90
aI89
aI363
aI74
aI706
aI918
aI127
aI158
aI22
aI775
aI298
aI998
aI173
aI365
aI296
aI47
aI183
aI603
aI71
aI50
aI356
aI276
aI416
aI11
aI656
aI828
aI250
aI644
aI301
aI184
aI726
aI818
aI95
aI637
aI87
aI379
aI306
aI551
aI881
aI34
aI530
aI732
aI466
aI340
aI16
aI433
aI499
aI143
aI537
aI700
aI18
aI362
aI231
aI605
aI419
aI54
aI717
aI434
aI42
aI686
aI15
aI595
aI98
aI339
aI680
aI708
aI672
aI39
aI314
aI140
aI329
aI244
aI803
aI269
aI290
aI665
aI598
aI368
aI649
aI833
aI512
aI682
aI878
aI139
aI254
aI191
aI829
aI171
aI228
aI48
aI648
aI333
aI456
aI947
aI782
aI961
aI227
aI488
aI96
aI786
aI188
aI371
aI744
aI525
aI972
aI500
aI910
aI447
aI872
aI849
aI654
aI166
aI475
aI543
aI497
aI898
aI645
aI214
aI715
aI321
aI739
aI636
aI895
aI519
aI49
aI565
aI517
aI116
aI699
aI873
aI510
aI410
aI527
aI692
aI908
aI981
aI958
aI859
aI772
aI113
aI279
aI186
aI342
aI509
aI769
aI794
aI559
aI719
aI477
aI907
aI996
aI914
aI984
aI382
aI780
aI619
aI70
aI451
aI154
aI707
aI388
aI889
aI921
aI513
aI651
aI875
aI149
aI639
aI459
aI757
aI76
aI876
aI552
aI578
aI791
aI758
aI713
aI902
aI839
aI432
aI402
aI620
aI994
aI99
aI966
aI891
aI690
aI893
aI926
aI461
aI287
aI949
aI766
aI142
aI310
aI754
aI291
aI932
aI959
aI764
aI236
aI465
aI80
aI431
aI845
aI976
aI322
aI23
aI801
aI485
aI536
aI411
aI491
aI861
aI44
aI120
aI162
aI585
aI415
aI494
aI954
aI216
aI971
aI593
aI511
aI422
aI904
aI20
aI449
aI159
aI694
aI911
aI136
aI295
aI962
aI987
aI282
aI691
aI467
aI741
aI844
aI993
aI621
aI944
aI824
aI526
aI840
aI928
aI300
aI317
aI29
aI923
aI130
aI331
aI734
aI458
aI917
aI352
aI950
aI985
aI753
aI742
aI760
aI816
aI121
aI607
aI196
aI957
aI315
aI469
aI667
aI776
aI309
aI854
aI60
aI62
aI435
aI633
aI550
aI745
aI696
aI197
aI398
aI879
aI716
aI268
aI106
aI783
aI399
aI820
aI832
aI32
aI912
aI464
aI288
aI58
aI341
aI178
aI611
aI101
aI884
aI809
aI997
aI506
aI913
aI392
aI351
aI826
aI137
aI418
aI627
aI496
aI835
aI664
aI871
aI230
aI82
aI573
aI190
aI237
aI581
aI779
aI30
aI260
aI438
aI4
aI705
aI850
aI522
aI992
aI476
aI107
aI265
aI685
aI208
aI967
aI827
aI122
aI334
aI195
aI35
aI703
aI326
aI344
aI66
aI203
aI442
aI724
aI389
aI569
aI495
aI187
aI740
aI899
aI929
aI712
aI468
aI9
aI25
aI238
aI14
aI933
aI390
aI657
aI148
aI424
aI990
aI430
aI318
aI897
aI579
aI56
aI795
aI253
aI81
aI357
aI192
aI960
aI420
aI205
aI181
aI463
aI571
aI883
aI132
aI168
aI955
aI353
aI97
aI616
aI145
aI206
aI796
aI366
aI174
aI704
aI100
aI798
aI397
aI43
aI0
aI584
aI429
aI134
aI638
aI67
aI790
aI684
aI594
aI364
aI544
aI819
aI28
aI313
aI671
aI180
aI246
aI799
aI69
aI325
aI217
aI448
aI963
aI514
aI617
aI951
aI599
aI903
aI894
aI274
aI747
aI484
aI157
aI169
aI606
aI812
aI12
aI172
aI547
aI570
aI650
aI504
aI407
aI669
aI860
aI271
aI842
aI940
aI293
aI233
aI59
aI501
aI153
aI652
aI151
aI472
aI761
aI626
aI63
aI660
aI886
aI555
aI204
aI631
aI730
aI210
aI348
aI343
aI350
aI748
aI668
aI615
aI92
aI931
aI440
aI973
aI534
aI792
aI229
aI602
aI13
aI223
aI110
aI906
aI624
aI720
aI687
aI533
aI212
aI213
aI336
aI41
aI731
aI635
aI778
aI556
aI548
aI385
aI383
aI975
aI386
aI837
aI612
aI249
aI324
aI582
aI185
aI538
aI179
aI257
aI347
aI946
aI259
aI201
aI563
aI446
aI982
aI7
aI245
aI367
aI252
aI851
aI437
aI905
aI396
aI623
aI865
aI51
aI900
aI294
aI868
aI239
aI10
aI532
aI508
aI738
aI964
aI622
aI255
aI613
aI124
aI450
aI693
aI405
aI141
aI283
aI86
aI937
aI920
aI841
aI843
aI281
aI261
aI222
aI118
aI722
aI751
aI880
aI61
aI330
aI307
aI167
aI546
aI711
aI586
aI354
aI634
aI729
aI743
aI327
aI135
aI103
aI219
aI618
aI670
aI507
aI817
aI72
aI808
aI515
aI909
aI989
aI393
aI358
aI152
aI974
aI225
aI444
aI264
aI927
aI320
aI689
aI302
aI887
aI813
aI91
aI752
aI516
aI956
aI481
aI774
aI198
aI425
aI45
aI630
aI479
aI262
aI568
aI406
aI319
aI765
aI275
aI243
aI460
aI412
aI474
aI123
aI156
aI848
aI502
aI108
aI278
aI735
aI574
aI251
aI235
aI916
aI471
aI359
aI834
aI675
aI991
aI948
aI355
aI417
aI408
aI805
aI853
aI478
aI521
aI112
aI77
aI647
aI566
aI737
aI403
aI215
aI785
aI628
aI531
aI52
aI777
aI858
aI938
aI725
aI241
aI807
aI272
aI587
aI337
aI242
aI542
aI374
aI784
aI678
aI221
aI773
aI193
aI524
aI589
aI439
aI681
aI930
aI224
aI304
aI175
aI756
aI409
aI915
aI986
aI557
aI33
aI38
aI988
aI428
aI31
aI806
aI864
aI194
aI462
aI804
aI292
aI727
aI925
aI483
aI919
aI852
aI866
aI797
aI885
aI3
aI289
aI857
aI596
aI953
aI443
aI983
aI311
aI480
aI683
aI609
aI600
aI995
aI489
aI561
aI695
aI646
aI970
aI5
aI345
aI146
aI266
aI57
aI688
aI943
aI788
aI896
aI64
aI679
aI111
aI226
aI945
aI770
aI369
aI452
aI473
aI209
aI21
aI847
aI457
aI482
aI718
aI604
aI470
aI750
aI248
aI234
aI27
aI176
aI787
aI93
aI305
aI375
aI658
aI155
aI855
aI426
aI736
aI199
aI453
aI338
aI94
aI762
aI105
aI102
aI863
aI977
aI273
aI846
aI577
aI663
aI247
aI810
aI698
aI503
aI401
aI969
aI150
aI814
aI384
aI610
aI125
aI968
aI952
aI280
aI2
aI373
aI728
aI978
aI19
aI37
aI591
aI308
aI441
aI455
aI831
aI528
aI836
aI256
aI395
aI673
aI709
aI811
aI346
aI53
aI88
aI493
aI323
aI642
aI454
aI423
aI934
aI560
aI115
aI825
aI721
aI701
aI733
aI793
aI768
aI862
aI6
aI554
aI583
aI702
aI380
aI165
aI759
aI723
aI79
aI161
aI26
aI335
aI942
aI771
aI73
aI413
aI939
aI979
aI40
aI427
aI8
aI312
aI882
aI856
aI597
aI414
aI68
aI674
aI518
aI505
aI838
aI901
aI666
aI377
aI661
aI655
aI755
aI490
aI821
aI218
aI877
aI445
aI714
aI394
aI303
aI553
aI200
aI922
aI640
aI46
aI17
aI746
aI75
aI892
aI232
aI138
aI781
aI400
aI549
aI83
aI710
aI378
aI800
aI614
aI830
aI361
aI258
aI576
aI498
aI540
aI802
aI653
aI381
aI749
aI564
aI55
aI890
aI575
aI676
aI529
aI486
aI608
aI189
aI520
aI823
aI870
aI144
aI404
aI629
aI588
aI114
aI815
aI376
aI436
aI316
aI625
aI539
aI936
aI763
aI980
aI965
aI332
aI545
aI131
aI867
aI360
aI207
aI285
aI372
aI177
aI567
aI163
aI240
aI133
aI270
aI267
aI128
aI535
aI677
aI349
aI592
aI297
aI999
aI84
aI263
aI421
aI104
aI1
aI869
aI924
aI487
aI126
aI160
aI391
aI935
aI662
aI370
aI78
aI387
aI117
aI632
aI220
aI874
aI182
aI65
aI659
aI277
aI789
aI643
aI170
aI492
aI164
aI523
aI284
aI109
aI641
aI562
aI541
aI211
aI572
aI558
aI129
aI941
a(lp2
F0.00011650919304462748
aF0.003699544867931466
aF0.0009979513491778181
aF0.00030970822408371215
aF5.255210035652203e-05
aF0.000502871478763283
aF0.0007538305189511313
aF7.527281265740309e-05
aF0.003924772015017709
aF2.3213866512621418e-05
aF0.00017276722859777978
aF7.600568753669342e-07
aF8.705837530381589e-05
aF0.00010170886860219424
aF8.50417551184566e-06
aF4.490764980894913e-06
aF1.4248211103846453e-06
aF0.0017273325639176192
aF2.4696428460716025e-06
aF0.0009766567914344338
aF3.9187513133623485e-05
aF0.0006549001404027719
aF3.0139237812240193e-06
aF2.503247613016491e-05
aF5.717616425680299e-07
aF4.6792066812213844e-05
aF0.0025367309200541
aF0.0006294131473892137
aF7.51669215073444e-05
aF1.0980767198930627e-05
aF4.8327274524014964e-05
aF0.0003465389149232664
aF4.026225552608196e-05
aF0.0006156900568805224
aF2.395187317387233e-06
aF9.384654264664697e-05
aF9.525127131873914e-07
aF0.0013365604771467046
aF0.0006472022386607503
aF5.7881461237934524e-06
aF0.001368602087752134
aF0.00012145991034001415
aF2.1995048054979802e-06
aF0.0002710794241302472
aF5.117788431207675e-06
aF0.00012535448939714457
aF0.000671153795373771
aF4.554583500581017e-07
aF4.330724038674939e-06
aF8.002691228678813e-06
aF6.271654322519846e-07
aF0.00014700081364555823
aF0.000320058822654284
aF0.0011545946323843978
aF2.6863916777025677e-06
aF0.002171084631350973
aF6.244108066508765e-05
aF0.000581903974704086
aF6.188474068803148e-05
aF0.00012974854307785363
aF1.688125361812154e-05
aF0.00011026741345298671
aF2.5855779675469232e-05
aF8.087504695345607e-05
aF0.00019270417961520314
aF0.005150254807261505
aF3.918599983431833e-05
aF7.07987010013806e-05
aF0.00045778245967746314
aF0.00042011571562693075
aF1.3972595278729914e-05
aF7.247139649414686e-07
aF0.0002367098884002053
aF0.0014288285708799187
aF3.0267500312884275e-07
aF0.001770970162281194
aF1.7972964389257644e-05
aF0.0003399913974811111
aF0.001351658323110769
aF0.0006521716115652381
aF1.3254183819665104e-05
aF6.351165345533362e-05
aF6.323978522951084e-05
aF0.001380176225613794
aF0.0035116214858236534
aF1.1702087910164613e-06
aF0.00010075498965581249
aF9.366870380451564e-07
aF0.0012186681951226884
aF3.2899823366637526e-08
aF2.4766841336532945e-08
aF0.00019818364190694063
aF0.0001698753846558871
aF0.006621476406703438
aF0.001167978312531024
aF1.6115384699150925e-06
aF2.121313353688244e-05
aF7.873767467692579e-05
aF1.1861254260705727e-05
aF2.025135395407666e-05
aF8.221612634448946e-05
aF6.364274321635364e-05
aF0.0004644838431666912
aF0.00019746390127523052
aF0.0024560070427772367
aF0.0011920751400937093
aF3.164991901777042e-05
aF5.6454321718440495e-05
aF0.0002599054802341595
aF0.05145908797669048
aF8.053446918872375e-05
aF0.0004894912660756662
aF0.00035088910511037375
aF6.128098776432004e-06
aF0.003993325054023173
aF0.00042636112971787895
aF1.2291915385505793e-05
aF0.011605083442563077
aF0.00015947631316331963
aF8.455752693437994e-07
aF2.7306776064111712e-05
aF4.9210271191629915e-05
aF5.201246427944288e-05
aF0.0002006459855088114
aF0.00015430911209776506
aF0.001070750249840368
aF0.006958197662536931
aF6.221466779406955e-08
aF0.0019096657494973874
aF0.015648028712808078
aF2.484824558787996e-05
aF0.004699007264514914
aF0.00013627941248997916
aF0.00236497860133337
aF7.036395110171532e-05
aF0.00020261580915860008
aF3.887111804205043e-05
aF7.374965150837804e-05
aF0.0019785364853832574
aF5.869031495011824e-06
aF7.939017459024521e-06
aF0.00017150490118440662
aF3.241365275173672e-06
aF8.221777296554834e-06
aF0.002576072768368447
aF3.875464411265125e-05
aF0.0005679468239136396
aF1.6525084302272898e-06
aF6.457109991399772e-05
aF2.069789409975044e-06
aF0.0006276494367653814
aF0.00011155734880217142
aF0.0003375795717434012
aF0.00019116963906376595
aF9.057883976934518e-06
aF0.00045895256398188733
aF0.0003718690070567173
aF0.00014610958752639947
aF3.9577907543355296e-07
aF8.854209681508496e-06
aF0.007175504871693315
aF0.0015821849872683616
aF1.5093393746469133e-05
aF0.0008569152511154522
aF0.001060586519806172
aF0.0007221403582987504
aF3.6818693446614053e-06
aF0.00020305117602181167
aF6.660990239949741e-05
aF5.541797539513065e-05
aF0.006022836545612662
aF7.353611350283073e-06
aF7.738478893211254e-05
aF3.244887286921871e-07
aF6.424758160234961e-05
aF0.00041857815972967183
aF0.0004414513915424957
aF0.000726017477817805
aF2.0953809781261388e-05
aF0.0001620497980200862
aF0.00010696940108476953
aF6.822382683913022e-05
aF0.01478099401482987
aF4.375268222021409e-07
aF3.281597592617614e-06
aF0.0002343991554962774
aF1.6537829980402644e-05
aF4.0775197415005345e-05
aF1.1132433471150556e-05
aF0.0015621869111867419
aF5.4846402928688586e-05
aF2.9099023842177337e-06
aF4.412225408945582e-05
aF0.0003313432831796271
aF0.0002888078348964708
aF5.134056012385513e-05
aF2.322120862872691e-05
aF2.9566291886871706e-05
aF0.00021947325381781578
aF0.0004748824299077132
aF0.0012066212523498478
aF0.00017417804426158104
aF1.2040686872092922e-06
aF2.7844071112987846e-05
aF0.0001906677503084644
aF5.733565202980096e-05
aF3.166675647836287e-05
aF0.0012635809815499373
aF5.108720483650329e-05
aF0.0004650014396809677
aF0.00017426463837400105
aF0.020548838817456106
aF0.0006495577379030697
aF0.00016758245577609443
aF2.060209459873417e-05
aF0.00022756805203442003
aF1.6498027733315932e-05
aF6.306980060502329e-05
aF0.0008184153765159002
aF0.00017996493709903911
aF0.0013516725231107688
aF0.0002570322014932685
aF0.0002314643881485883
aF0.00022044763769502423
aF0.0002618157447002343
aF0.00041810482672373334
aF0.00037633684426956253
aF2.827896515788439e-06
aF2.791154558047113e-06
aF0.00022569023873979184
aF2.640988126710123e-05
aF2.2204479526680047e-06
aF0.0014986879581488294
aF0.00015028824669109333
aF0.0003620723167029657
aF0.00017689202602246847
aF1.8040820103606813e-05
aF7.228401668087966e-05
aF5.0564748389126955e-05
aF0.00023656745174525302
aF0.0023299586102723748
aF0.0002429329565071367
aF0.0003305149462515656
aF0.00029242004967389363
aF2.6340713648069782e-06
aF8.900681209688344e-05
aF6.749603548995607e-05
aF0.001073706805274961
aF0.0004284628005120917
aF9.662985316280593e-05
aF4.781766170720576e-07
aF0.00041815746022091997
aF0.00010947400210593206
aF5.025253292520263e-05
aF2.1506090202295225e-06
aF0.00017280880804206977
aF0.0007864774228248934
aF0.00017890193723170557
aF0.0065456778332642325
aF0.00018849694841637687
aF4.1866706221750806e-05
aF0.0001998193403381945
aF0.0001530989349887627
aF0.0071755151716933144
aF7.957060813708524e-05
aF3.825691327055602e-05
aF0.0005083221233146615
aF0.043902321695670474
aF3.1688025300727e-05
aF1.9274126718168492e-06
aF0.004100277632662014
aF7.919196328270154e-05
aF0.0003625531332475589
aF0.0005322293505854916
aF0.00016906233672030262
aF0.0002642085337011161
aF2.299099860989941e-07
aF0.016451592894261607
aF0.00021371905332288543
aF6.668136896608523e-06
aF0.0005343714453621316
aF0.00027854067718756083
aF8.645766137366546e-06
aF0.00021197425658973693
aF0.1462293125225112
aF0.002640777973727916
aF2.3982027689381517e-06
aF1.8377564599439345e-05
aF5.750784510877012e-05
aF0.00044798807306107474
aF1.7003654328570676e-06
aF1.1109889808307468e-05
aF0.00042199207491536357
aF8.49441437125954e-05
aF8.294111477494853e-05
aF1.8147863282791113e-05
aF4.80015893993471e-06
aF0.0013709261678877618
aF3.991706687920541e-08
aF1.2000878152335508e-07
aF1.971826244999613e-05
aF4.225110593855737e-06
aF0.00028700275573744145
aF0.001222071083625679
aF0.000388394680479335
aF0.0006214138290080102
aF5.645557094317771e-06
aF0.00021366813941322578
aF0.0004668803559249025
aF1.2196174153412989e-05
aF1.7873078587011386e-05
aF0.0005737415773744627
aF0.002540076637133598
aF0.00011189429338977787
aF1.3216391623541002e-06
aF1.4483789827690782e-05
aF0.0020858919996481
aF7.3699190992509965e-06
aF6.179231947552785e-05
aF0.0003418456567119813
aF0.00016738418711383684
aF8.515417798261091e-06
aF2.571427287241066e-05
aF0.0014323478034638918
aF9.054360610426723e-05
aF7.526792561081034e-05
aF6.51343785519511e-05
aF0.00023913723800634163
aF4.776337474924187e-07
aF2.7119174479335363e-06
aF0.00020035720779605526
aF1.187523034392278e-05
aF0.003832299071882228
aF2.6297298177845707e-06
aF4.004035241532079e-05
aF0.0013862575942430542
aF0.000120445951375436
aF0.00038339669668705433
aF0.0004589157334162353
aF1.5131994912260465e-06
aF6.51153324312826e-07
aF3.412407555770817e-05
aF9.01539086258357e-06
aF9.240017749587291e-05
aF4.6234950354447954e-05
aF0.0005377372769921108
aF0.0005692411685417304
aF0.00016203291690464173
aF8.309667843180201e-05
aF0.000740275783130492
aF6.936091933489331e-05
aF4.2781043572173765e-05
aF2.719827900625147e-05
aF3.155693690703004e-05
aF0.00021821613073238496
aF0.00034047719656264344
aF1.5380064967384778e-07
aF5.445150599154048e-05
aF0.00016190138941130978
aF0.0002666898749847132
aF0.0023484000217302513
aF0.006545688133264232
aF7.364369142188119e-07
aF1.6094119689569632e-06
aF3.406042951583632e-05
aF7.72551636093482e-08
aF0.0001623125414834862
aF0.00011156846546995128
aF1.532239821035335e-06
aF0.000947670654885666
aF0.004943558627550447
aF2.2915285928388815e-06
aF0.0047541578081840745
aF0.0013849509472050891
aF7.866161069272531e-05
aF0.00044392154263298705
aF0.0016120142851440392
aF0.0005136167902431971
aF0.0006192382806756373
aF6.936310298426034e-07
aF0.0011181950489973244
aF0.0016519660352429242
aF6.903896077286176e-06
aF0.00014606817840169374
aF0.00035286549731899057
aF0.00010999289680023989
aF0.00021827932341112022
aF0.001578570063147953
aF6.780912754437267e-06
aF2.936606612194014e-05
aF4.1285658393688556e-05
aF0.00107777479628329
aF4.816475140620163e-05
aF0.0002777993079341952
aF0.0015101739102853532
aF0.0016075349225633299
aF0.0002107107071580541
aF3.582042867488021e-05
aF6.062847815668801e-05
aF6.566774740172493e-05
aF0.002350889317564593
aF0.0005844873064627768
aF1.3641596701887859e-05
aF0.0003606975199019791
aF0.0015853801620247842
aF0.00014021650012245796
aF0.00017945361148317452
aF0.0001072229296131491
aF0.00020728507582986903
aF0.0002456302085825165
aF3.4561292649531146e-06
aF1.7447068591234933e-05
aF0.00022487153221831848
aF0.0009994821932175898
aF0.0015900622887676829
aF6.450998457614639e-06
aF9.180845734380652e-08
aF0.00020523776699095264
aF3.915345753279338e-05
aF5.991420627004183e-07
aF0.0001380151589617804
aF0.009793654947173554
aF2.03748250400874e-05
aF0.001426950365704839
aF4.6017863998785036e-05
aF0.00022455585424639902
aF0.0004080532279706329
aF0.0021124117119205445
aF0.0003203952560820212
aF5.5396291098544645e-05
aF4.125614204210592e-05
aF3.6117566702879624e-05
aF3.5833502041805684e-05
aF4.0640612895276143e-07
aF5.587169766616914e-06
aF2.3402405789947065e-05
aF0.0024205932891179483
aF0.00010393992668706992
aF4.4279911076023056e-05
aF0.0003594635704916812
aF7.646083054731443e-05
aF0.0008810405665898949
aF9.040438853156774e-05
aF0.000586480252899893
aF0.00015698938176809873
aF0.0013250310971497383
aF0.00011667814497019778
aF2.834953678829581e-06
aF0.00013978096582686748
aF2.4450228186055207e-05
aF0.000149541707224223
aF6.294009081298037e-06
aF0.0002927441589276779
aF0.0004801614123462537
aF0.0006522091115652381
aF0.0007706108837550494
aF1.1598275603266516e-05
aF0.0007117962829607634
aF5.0520639652829914e-05
aF1.2989717887875861e-05
aF0.0002665015690825852
aF1.6257453634503703e-05
aF0.0008509053291156652
aF9.065808847358368e-05
aF2.4480623406412358e-05
aF2.0236651182043045e-05
aF2.9561764012886002e-06
aF4.100113658893846e-05
aF3.2375967105453175e-05
aF3.918017002441151e-05
aF0.00041046561367981464
aF0.0009275362597064016
aF4.932556202012382e-05
aF0.000506651112809342
aF0.00022287027314273067
aF1.2160987171827613e-05
aF4.070062441081949e-05
aF4.0081813581349785e-06
aF0.00042206917116298826
aF0.00012047060399149155
aF0.0003359228225272558
aF0.00022505421880094807
aF0.0004407980632874533
aF0.0005131029768424605
aF4.4793151382287114e-05
aF3.650763341498431e-06
aF0.0006731482841687012
aF0.004179750975396598
aF3.864821085136788e-06
aF0.00045679664217126184
aF0.0012417532064030567
aF3.987044712666878e-05
aF0.0036320777742633223
aF0.0005403159236600644
aF4.8078112940126594e-05
aF4.764176510637974e-05
aF1.7555816100035366e-05
aF2.5811711162917175e-06
aF0.0006192502806756373
aF1.6800973118890654e-06
aF1.9180870904445884e-06
aF5.381905136522337e-05
aF0.00018407939098643854
aF0.0007376395970463396
aF8.52039549991578e-05
aF0.000458701447200592
aF2.78807083773856e-05
aF0.00022796386186372934
aF0.0001696473996667966
aF5.952569839246011e-06
aF3.3308999699527007e-06
aF2.485604033222357e-05
aF1.144261753862512e-06
aF3.157917269641793e-06
aF0.00010517710181196848
aF0.0002688547662894367
aF0.0015933707752436605
aF3.581478670206608e-06
aF0.0007753171987621931
aF3.9149397864337e-06
aF0.0013375478838451311
aF0.00020028301152965995
aF2.537864946854987e-05
aF0.0016814149203597147
aF0.0002563727997252106
aF1.7317099566551995e-06
aF2.3994316578867316e-05
aF4.438260626507268e-06
aF0.0006174736718003424
aF0.006545704933264233
aF9.176607186232149e-08
aF0.00024703640053796896
aF0.00011941931218060738
aF7.219706485578982e-05
aF4.938317420630246e-05
aF0.0013534250715412437
aF1.6267555628177066e-05
aF2.8299258163104687e-07
aF0.00011669736154732464
aF0.003762377291272962
aF0.001158079607012666
aF0.05145913117669048
aF0.00022453808613340898
aF3.0732513511902124e-06
aF5.994234310750512e-05
aF0.0008251448409050073
aF0.00011415998324847595
aF7.703452627270771e-05
aF8.311146532390297e-05
aF0.0016902126856354316
aF1.3529223490904005e-05
aF1.2436372947203784e-07
aF9.193296831018459e-06
aF0.0005725809633249023
aF0.0014061005377154457
aF8.120503644339559e-05
aF0.00012010597258525824
aF0.0005537140651378751
aF0.020454824263986624
aF3.7542251012699645e-06
aF0.0005227693564115673
aF0.0005963329711336855
aF0.004939197491466434
aF7.874619459345914e-05
aF0.0053117030724927
aF9.986824144990158e-06
aF0.00023480843491563132
aF0.0008637548682397668
aF0.00021424072029743052
aF3.3239422033677026e-05
aF7.531987821818288e-05
aF6.7417096609045e-05
aF0.020548874917456106
aF5.12362312241159e-05
aF0.00020456714452435262
aF0.00257330909835148
aF0.001370391506644531
aF0.00035356043301217413
aF6.327782658002917e-06
aF6.192762392398148e-05
aF4.0482552074191304e-07
aF3.9220519081502466e-05
aF0.00010916348912932344
aF0.000662671781752676
aF0.00011196431452764883
aF1.4680895754612927e-05
aF0.00018447115865716633
aF0.00034607521143459325
aF0.004614029847669124
aF0.00026733863771039674
aF1.492116811775137e-07
aF0.0005578505174596674
aF0.00372444520446304
aF1.3684361493401373e-05
aF5.976065899104855e-05
aF4.4432835572272877e-07
aF0.0002246087235407642
aF0.0008708316786574104
aF7.250407164105894e-07
aF4.18508850994721e-05
aF0.0005152948669345914
aF3.485203623264712e-07
aF0.0001373489511938319
aF9.98173314137782e-07
aF0.0004726367248839805
aF5.5185354617182615e-06
aF6.358894827297462e-05
aF4.052232960952754e-05
aF0.00228079163278528
aF0.0002933005222836726
aF0.0004131878006386704
aF4.301993204626766e-05
aF0.00012893301530855772
aF0.00024971409381608945
aF0.0009523217208188675
aF0.0001531960878913898
aF7.782324869090994e-05
aF0.00014892669830646982
aF0.0001799156252595388
aF1.2907804127066687e-05
aF8.962493154637127e-06
aF5.783891501506535e-06
aF0.0001722396877845915
aF7.517579105275155e-05
aF6.11499872631944e-05
aF0.009829964641516878
aF0.00010354491887838856
aF1.6684009863407994e-05
aF0.00023620474003038116
aF0.0007469356221981174
aF0.00023524695552099576
aF8.317974755977375e-05
aF0.01480866347519671
aF2.5073767362117136e-05
aF0.00020938897964988177
aF0.00020794978165702513
aF2.235353277815994e-06
aF2.3017278163642242e-07
aF4.282839814128266e-05
aF6.517089343703182e-06
aF0.0013369099000188653
aF0.001060634219806172
aF0.0005079982762528463
aF0.01508573746338566
aF1.0168927144542403e-06
aF2.0465322709163158e-06
aF0.0005825233261024169
aF0.0003329999896015329
aF1.7129547486678966e-06
aF5.286111991866962e-07
aF6.453250844750571e-05
aF3.7434200684912956e-06
aF0.00011048253418444337
aF0.000701155750049518
aF1.5614735101300128e-06
aF0.0005004616208813316
aF1.3407278887982586e-07
aF7.258671950282813e-05
aF0.0005856485058155436
aF0.01480866617519671
aF7.356601793751593e-05
aF0.0007120688543504343
aF0.00208543836025052
aF0.0005893693105135878
aF2.692548199732352e-05
aF7.438536242541264e-07
aF0.0007193005915394805
aF1.0135187628996814e-05
aF9.376355979399183e-05
aF9.120052361058995e-05
aF0.0002089904366196295
aF7.1793138549305e-05
aF3.409786680110431e-07
aF0.0007387241047783263
aF0.0006744779223285617
aF0.00032809414562141816
aF0.003203647792436249
aF0.003629381096907476
aF0.0002906605173882072
aF0.00042859669334085977
aF2.2127496799892713e-06
aF7.849538041580484e-05
aF9.441525799469887e-07
aF0.00032441983914741724
aF0.00011362330889906596
aF5.601104388148631e-05
aF3.727600111143621e-07
aF0.00011597462476064423
aF0.0005468676793116872
aF8.021925959526759e-05
aF2.47288602611667e-06
aF1.540115221781569e-05
aF3.0128910618976653e-06
aF0.00016930417657832762
aF2.0211427397061654e-05
aF0.0003484789180764332
aF7.316008220931033e-05
aF1.1775531728462383e-06
aF0.00047239949832577987
aF6.792660071438129e-06
aF9.464805780562242e-08
aF0.0008138980224837505
aF0.0007746297287126997
aF5.275955077021286e-05
aF4.126609276624877e-05
aF3.481304637220555e-05
aF1.7615380615105984e-07
aF3.3512743278655556e-06
aF2.3358259984012626e-06
aF0.0008940515302273641
aF0.0012115913217993326
aF0.00010048766041777955
aF5.739891207907678e-05
aF6.6407555296538145e-06
aF0.0012089535420242816
aF1.4739201937211974e-06
aF1.3537868709109855e-05
aF4.4360519054218666e-06
aF0.0005518436034118324
aF1.0796274717973992e-05
aF0.00010737978446497277
aF0.0006703370168135102
aF0.00020855692696282251
aF0.0005184228148844631
aF2.7966822485584376e-05
aF0.0002904056496843049
aF1.0488960906949347e-06
aF0.0005387268062152649
aF0.00067825398462863
aF0.00019752650127523053
aF0.00017826404676994222
aF5.871585426960875e-05
aF2.9281352943220884e-06
aF0.00044412309837910016
aF3.100384470960653e-05
aF0.00019505956558156214
aF0.0006962396027170763
aF0.00036401921511392747
aF0.0001055388801423914
aF2.0872399405950416e-06
aF4.180905673204627e-05
aF2.5317609217137693e-05
aF3.130932164197127e-05
aF0.00013847904230092234
aF2.8705532584913585e-06
aF1.7266706761735288e-05
aF0.0008438038492812809
aF4.150975585272421e-05
aF0.00011522485827560542
aF0.0016102124357992881
aF0.00040171039708179036
aF0.000190845574932086
aF0.0003154292339444453
aF8.949604571184878e-06
aF2.4871190908957393e-06
aF0.0017812518420702184
aF0.0002375857094182371
aF1.1281968392333654e-05
aF4.941048773415102e-06
aF0.0006966965887859918
aF5.280116287777809e-05
aF4.908412946577254e-05
aF0.0005469710310164297
aF0.004256036713283466
aF6.212255886828408e-06
aF0.00025339364159720514
aF2.125786733142644e-06
aF1.7423167740627495e-07
aF0.0012187361951226884
aF2.843090011882532e-06
aF0.0003632102045343989
aF0.0005310123016457746
aF5.7915074622975336e-06
aF0.00045146449319841955
aF0.00016867095173916924
aF1.0693168394049595e-06
aF2.8643626682463342e-05
aF0.00021304856672276762
aF5.748250020623127e-05
aF3.1462014374418734e-05
aF5.862246123793452e-06
aF0.0018275846022496455
aF5.381443727097574e-07
aF1.5350265171772646e-05
aF0.0003513569313954694
aF0.00037362143667989025
aF3.6988825613058217e-06
aF0.0003928421763580691
aF0.00030807743427565507
aF0.014549239818368238
aF8.086066175194322e-05
aF6.212012855524291e-06
aF0.00017331059876647852
aF0.0014674192213953753
aF1.4918480444058234e-05
aF3.031603441607288e-05
aF6.517084120077912e-05
aF0.0003214411308829381
aF8.091623957710824e-05
aF9.419460767792132e-05
aF0.0006288805466237246
aF8.753336668107622e-06
aF0.0006192806806756373
aF6.391724207900096e-07
aF0.0003878141012590749
aF0.0002945435426858092
aF0.0003662978975504979
aF0.00021104846103451748
aF0.0002389949695650585
aF3.993568725175986e-05
aF0.00041363640474443685
aF0.0006463571141112497
aF6.498624419124126e-05
aF0.00023831213299612195
aF0.0005506987455476412
aF0.0007394083695668178
aF5.360576828856889e-05
aF0.00022719605582759877
aF2.0320209208798604e-06
aF4.9495423573870456e-05
aF1.607903825547736e-05
aF0.0010022901462202547
aF4.2165473794055645e-07
aF0.0018172059326335564
aF1.6795271442969607e-05
aF0.0016208121379342117
aF2.5496946537642903e-05
aF7.461189590256694e-05
aF1.287318756362138e-07
aF1.3515472626145692e-07
aF0.0007059551061321429
aF0.0008295019005857636
aF3.1738431937044054e-05
aF2.365030880534089e-06
aF0.00017677381649211445
aF2.5269979747728668e-05
aF0.0006940736608300361
aF0.00012685848502500582
aF0.0013060317821600243
aF4.93773351799405e-06
aF2.018813322117324e-05
aF0.00019715824686368898
aF8.344914858420903e-05
aF0.0001412732634901212
aF6.9516283895624875e-06
aF8.179511204945368e-06
aF0.0005814676935753605
aF0.00019786504506250487
aF0.00024893098735546433
aF1.2014315988286895e-06
aF3.920462329710682e-05
aF0.00014221040799892765
aF0.0004199927968211113
aF0.0002659147095229082
aF3.3640526475564556e-05
aF0.0006302453362127778
aF0.0007348809207217001
aF0.00031008552736875173
aF0.0003334832848411218
aF4.231821936884121e-06
aF9.175130284033265e-05
aF9.643058067498501e-06
aF0.000707289472964024
aF0.0007247687304945135
aF0.0003021557663093556
aF0.00017290654359373916
aF0.0003204032458104029
aF0.004943938835494672
aF0.00010966876374889211
aF0.004171195258684574
aF0.003073120731055043
aF4.1505940060574776e-05
aF6.877966190870395e-06
aF1.5127019375833413e-06
aF0.01645165259426161
aF6.0928947812803604e-06
aF1.1843304935640308e-05
aF0.001004267619603826
aF5.481916621415317e-07
aF1.2660675810692448e-05
aF0.00025358230603267704
aF6.879909408752116e-07
aF0.0007135581889439472
aF2.253615835344115e-05
aF1.770843024759464e-05
aF0.0004345317692083243
aF0.00017734255890737008
aF0.00020022421757102601
aF4.3557995532911236e-07
aF2.950608603936156e-06
aF0.002309781758740973
aF6.966158731843049e-06
aF0.0036602160693931084
aF4.4951863680807225e-06
aF7.070560694777287e-05
aF4.4364018927674145e-06
aF0.0008194556261203057
aF4.007103394800698e-05
aF6.50666246594879e-07
aF3.0695545733749224e-05
aF0.00012071101568240477
aF0.0007353952539921187
aF5.168073345117852e-06
aF0.00014694222146997572
aF1.6347896562717986e-05
aF0.000164943166064533
aF0.00010342058801120224
aF1.8642840638879332e-06
aF1.8953094248852676e-06
aF0.00011521024734243662
aF3.426002303662817e-06
aF2.0131686307927143e-05
aF1.3041544229586116e-05
aF1.7798531095022542e-05
aF2.5315870698155682e-06
aF0.0002644607528265117
aF0.00018536458805941655
aF7.335619569507637e-06
aF1.5512732497585037e-07
aF0.0003232086354029462
aF0.00023335519780201465
aF4.235196638014249e-06
aF0.0007193261915394804
aF6.5108164210092536e-06
aF0.016194829879283234
aF0.0003239090186696107
aF1.123475449719646e-05
aF0.000177431409105262
aF1.1583232535550493e-05
aF3.574777184706193e-05
aF0.0002557176139973119
aF5.4660734817309114e-05
aF8.149755129898724e-06
aF3.9057687302437323e-05
aF0.0004249948364433373
aF0.001009581113997164
aF0.004625238348631903
aF8.44077689665176e-05
aF0.000393213603064689
aF0.0015457163522667912
aF5.0116403276699794e-05
aF0.019830873401500804
aF0.0007117230634718721
aF0.000358009060836434
aF1.8719289889210376e-05
aF0.00033400852807906225
aF0.000152978034653863
aF3.4629394120682384e-06
aF0.00026500920151665506
aF4.825533687149599e-06
aF3.1325272344820025e-05
aF4.012394725987723e-05
aF0.0011706908421462725
aF0.0003727747975890477
aF7.853905584775038e-06
aF7.484790933183574e-05
aF0.00025599936679149976
aF1.3379245107896365e-05
aF1.1719438372916458e-06
aF3.954591996069037e-06
aF6.987440716583837e-05
aF3.983056783044657e-07
aF1.044852990847039e-05
aF9.002024097724942e-05
aF0.00017375315784993109
aF0.004655150948177527
aF4.978286413476589e-06
aF3.349985330637688e-05
aF0.00044495393324322645
aF0.00047910266179432656
aF0.00044541569012583734
aF2.849155684173636e-05
aF1.2872306832994996e-06
aF0.0001713262944979387
aF0.00022178275913522472
aF0.00022692733231866448
aF4.2011782838999825e-06
aF0.00033671551657217367
aF0.0004423733757470162
aF0.0007293615800584802
aF0.0008562052509601504
aF1.1264274513606144e-06
aF0.00029129124434136333
aF0.0007060322174987
aF4.5611275595460906e-06
aF1.3249760973515085e-05
aF0.0003424458441933059
aF1.5560455104820027e-05
aF0.0005169852003676802
aF0.0001123348473140691
aF6.569291816618694e-05
aF0.0003258411360942107
aF3.6070316744872733e-05
aF1.33182013630072e-05
aF3.8126081660934577e-06
aF0.0005054212666023648
aF1.5082625892938903e-06
aF4.788833470995722e-05
aF1.6299586909851916e-07
aF0.007168268878101108
a(lp3
cnumpy.core.multiarray
scalar
p4
(cnumpy
dtype
p5
(S'f8'
p6
I0
I1
tp7
Rp8
(I3
S'<'
p9
NNNI-1
I-1
I0
tp10
bS'\xd7!\xf1\x91\t\xad\xb2\xbf'
p11
tp12
Rp13
ag4
(g8
S' *\x9e\xb8\x14\x00\xc2\xbf'
p14
tp15
Rp16
ag4
(g8
S'\x07J\xc8\x14\x06\x12\xf5?'
p17
tp18
Rp19
ag4
(g8
S'\x86;\r,\xc2\x8b\xf5?'
p20
tp21
Rp22
ag4
(g8
S'\xa2\x05\x0b\xf6\xa7\xc7\xc9?'
p23
tp24
Rp25
ag4
(g8
S'\xba\xc0\xa07\xc8\xe2\xdb?'
p26
tp27
Rp28
ag4
(g8
S'e\xaeO\xace<\xea?'
p29
tp30
Rp31
ag4
(g8
S'l\x17x\x97H\xb0\x00@'
p32
tp33
Rp34
ag4
(g8
S'\xf7`-\xac.\x8f\xec\xbf'
p35
tp36
Rp37
ag4
(g8
S'\xde\xef\xed\xd6>-\xf1?'
p38
tp39
Rp40
ag4
(g8
S'\x86^\xa3\xda=\xf4\xf3\xbf'
p41
tp42
Rp43
ag4
(g8
S'y\xf3\x12\xe5\x15\x12\x05@'
p44
tp45
Rp46
ag4
(g8
S'\x83\xd9\xf1\x87\xe6\x07\xf1?'
p47
tp48
Rp49
ag4
(g8
S'\xc3[\xf1y\xdc8\xec?'
p50
tp51
Rp52
ag4
(g8
S'\x0b\x96X\x9a\x14\x96\x02@'
p53
tp54
Rp55
ag4
(g8
S'q\xbb\x1da\xccM\xed?'
p56
tp57
Rp58
ag4
(g8
S'\xdf\xca\xb4-\xd1\x15\x07@'
p59
tp60
Rp61
ag4
(g8
S'C\xa9\xbe\x11\x84\xec\xd9?'
p62
tp63
Rp64
ag4
(g8
S':\x19h\x890&\xf9?'
p65
tp66
Rp67
ag4
(g8
S'\x855v\r\xcfr\xbb?'
p68
tp69
Rp70
ag4
(g8
S'G\xeb\x94a\x83\xdd\xf4?'
p71
tp72
Rp73
ag4
(g8
S'\x98\x93\xa6D\xf36\xd4\xbf'
p74
tp75
Rp76
ag4
(g8
S'\xe7,\x7f\xa59?\xdb?'
p77
tp78
Rp79
ag4
(g8
S'\xd7\xbf`\xc4F\xd6\xfc?'
p80
tp81
Rp82
ag4
(g8
S'\xa9\xeb!\xeaKh\n\xc0'
p83
tp84
Rp85
ag4
(g8
S'\xafr\xbc\xde\xe8X\xeb?'
p86
tp87
Rp88
ag4
(g8
S'/\xca\x8a\xb9\x1d\x0c\xed\xbf'
p89
tp90
Rp91
ag4
(g8
S'\xc6\xbe\xf6\x85\x87\xe8\xea?'
p92
tp93
Rp94
ag4
(g8
S'L\x9e\xa8\x0f\xa8;\xef?'
p95
tp96
Rp97
ag4
(g8
S'\xf9q\xcb\xe7x\xd2\xfb?'
p98
tp99
Rp100
ag4
(g8
S'N\x14V\xf1v\xb0\xef?'
p101
tp102
Rp103
ag4
(g8
S'J\xe6\xa8\xc8\x0f\x92\xdd?'
p104
tp105
Rp106
ag4
(g8
S'\x9f\xf0\x0bZ\xad(\xc6\xbf'
p107
tp108
Rp109
ag4
(g8
S'\xe7k\x0e\xefRQ\xc1?'
p110
tp111
Rp112
ag4
(g8
S'h\x81\xe6\x08\xaa\xc6\xfb?'
p113
tp114
Rp115
ag4
(g8
S'\x1av\xbcy \x0e\xc3\xbf'
p116
tp117
Rp118
ag4
(g8
S'9\xed/=\xd32\xa5?'
p119
tp120
Rp121
ag4
(g8
S'\x07\x87\xef\x13\xaa\xf8\xf2\xbf'
p122
tp123
Rp124
ag4
(g8
S'L\xbcT_\xb1L\xab?'
p125
tp126
Rp127
ag4
(g8
S'\x13X/\xe1\xe6\xb9\xea?'
p128
tp129
Rp130
ag4
(g8
S'B\x92\xdf\xf9\xe1S\xf3?'
p131
tp132
Rp133
ag4
(g8
S'\xb9\xd0:kj8\xef?'
p134
tp135
Rp136
ag4
(g8
S'\x06aX\xa0\xc26\x01@'
p137
tp138
Rp139
ag4
(g8
S'\xfb\xab\x87=\x02\xa2\xda?'
p140
tp141
Rp142
ag4
(g8
S'\x13\xd6Z\x91Z\xe9\x02@'
p143
tp144
Rp145
ag4
(g8
S'\x8d1\xf3\xe7\x82\x8e\xf4\xbf'
p146
tp147
Rp148
ag4
(g8
S'\xc4\xa6\xa0A\xb3\xc5\xec?'
p149
tp150
Rp151
ag4
(g8
S'4fGL\x82\xa7\t@'
p152
tp153
Rp154
ag4
(g8
S'h\r\x13li\xb7\xfa?'
p155
tp156
Rp157
ag4
(g8
S'8WKW\x9f\x9c\xf6?'
p158
tp159
Rp160
ag4
(g8
S'\xc8\xbb\x8f:\xb4\x8a\x05@'
p161
tp162
Rp163
ag4
(g8
S'"\xf6\x82\x05\xdc\xa5\xf2?'
p164
tp165
Rp166
ag4
(g8
S'\xea\xf6s\xcf\xae\xa2\xbd?'
p167
tp168
Rp169
ag4
(g8
S'\x93\x9b5(-\xf5\xc0?'
p170
tp171
Rp172
ag4
(g8
S'\xb8\x83\x13\xa6~>\xfb?'
p173
tp174
Rp175
ag4
(g8
S'\x90\xd4\xaa\xeek\x9e\xd8?'
p176
tp177
Rp178
ag4
(g8
S'B\rhQ<\xa7\xec?'
p179
tp180
Rp181
ag4
(g8
S'\xa0\xd5\xae\xc4rr\xf3?'
p182
tp183
Rp184
ag4
(g8
S'\xa7VNv\xd8\xbb\xb2\xbf'
p185
tp186
Rp187
ag4
(g8
S'\xf2F\x83\xfd{9\xf0?'
p188
tp189
Rp190
ag4
(g8
S'S\xfbf\x908D\xf9?'
p191
tp192
Rp193
ag4
(g8
S'\xd8\xcaZ\x12\xcd\xd9\x02@'
p194
tp195
Rp196
ag4
(g8
S'[@\x7ffh\x91\xed?'
p197
tp198
Rp199
ag4
(g8
S'\x814";eZ\xe9?'
p200
tp201
Rp202
ag4
(g8
S'\xf6o\x11j5\x8b\xfb?'
p203
tp204
Rp205
ag4
(g8
S'P\xf0\xd4\xf3X\x06\xc4?'
p206
tp207
Rp208
ag4
(g8
S'\xba\x9a=o\xe2-\xfc?'
p209
tp210
Rp211
ag4
(g8
S'*\x13d\x10\x98\xc5\xf3?'
p212
tp213
Rp214
ag4
(g8
S'O\x1a\xbb\xa5_Y\xf0?'
p215
tp216
Rp217
ag4
(g8
S'\x82^\xbbR\x1ah\xe9\xbf'
p218
tp219
Rp220
ag4
(g8
S'{}fF\xdb\x11\xf1?'
p221
tp222
Rp223
ag4
(g8
S'XD\xc0Y3\xb3\t@'
p224
tp225
Rp226
ag4
(g8
S'Q\xedh/\xb5\xad\xdf\xbf'
p227
tp228
Rp229
ag4
(g8
S'\xc0\xc6\x8f\x96zE\xbb?'
p230
tp231
Rp232
ag4
(g8
S'\x12o@,\xb1\xb1\x05@'
p233
tp234
Rp235
ag4
(g8
S'|\x93\x14\x8eT\x1c\xd8?'
p236
tp237
Rp238
ag4
(g8
S'M\xe6\x04\xb1%F\xf4?'
p239
tp240
Rp241
ag4
(g8
S'\xbee\xddx\xab\xa3\xd0?'
p242
tp243
Rp244
ag4
(g8
S'\x7f\xa8\xc2\x8bt\xde\xf8?'
p245
tp246
Rp247
ag4
(g8
S'\xe41]\x81\xed\xfb\x91\xbf'
p248
tp249
Rp250
ag4
(g8
S'\x8d\xa9\th|\xdf\xdc?'
p251
tp252
Rp253
ag4
(g8
S'p9\xaa7\xea\x0f\xeb?'
p254
tp255
Rp256
ag4
(g8
S'\x80\xbc\xf6\x1d\x1e\xd9\xe8\xbf'
p257
tp258
Rp259
ag4
(g8
S'\xd0\xcc$\xce\x12\r\xb9\xbf'
p260
tp261
Rp262
ag4
(g8
S'\xca-;>\xe5\xb9\xa0?'
p263
tp264
Rp265
ag4
(g8
S'\x8d\x9a_\x83\x17\xe9\xa5\xbf'
p266
tp267
Rp268
ag4
(g8
S'\x84\xd4\xbb^j\xc7\x02@'
p269
tp270
Rp271
ag4
(g8
S'"V\x89*\x86\x11\x08@'
p272
tp273
Rp274
ag4
(g8
S'\x9a3\xae&\xd1\x95\xba?'
p275
tp276
Rp277
ag4
(g8
S'\xe3\xdf\xf0\xf3\xeb\xa4\n@'
p278
tp279
Rp280
ag4
(g8
S'*\xf2$\x8c\x82\xb5\x10@'
p281
tp282
Rp283
ag4
(g8
S'\x80`\xc1\xc8\x8e@\xd6?'
p284
tp285
Rp286
ag4
(g8
S'&\xf4\xa5\r2s\xe2?'
p287
tp288
Rp289
ag4
(g8
S'\xa6\xafC\xa0\xa9\xd9\xf7\xbf'
p290
tp291
Rp292
ag4
(g8
S'{\xe6aH\x82\x05\xde\xbf'
p293
tp294
Rp295
ag4
(g8
S'\xb1(\xff0\x8f\xd8\xfc?'
p296
tp297
Rp298
ag4
(g8
S'Sf\x8e9\x90\xf4\xfa\xbf'
p299
tp300
Rp301
ag4
(g8
S'\x16i`\xcd,z\xb7?'
p302
tp303
Rp304
ag4
(g8
S'I\xfa:6\xbae\xe8\xbf'
p305
tp306
Rp307
ag4
(g8
S'\xa3\xe3\x0c\x0f\xfe\xea\xf6?'
p308
tp309
Rp310
ag4
(g8
S't\xf0H\x04\xdeE\xf6?'
p311
tp312
Rp313
ag4
(g8
S'\x012\xc6d\x15\xd1\x03@'
p314
tp315
Rp316
ag4
(g8
S'\x01\xee\xa7\xdb\xd2\x7f\xd4?'
p317
tp318
Rp319
ag4
(g8
S'\x82\x98\xcdv\x9b\xc1\xf3?'
p320
tp321
Rp322
ag4
(g8
S'\xfdB=\xc5Kv\xa5?'
p323
tp324
Rp325
ag4
(g8
S"\xed\xe27\xe3'#\xd7\xbf"
p326
tp327
Rp328
ag4
(g8
S'\x0f\x93\xf5\\Ed\xd3?'
p329
tp330
Rp331
ag4
(g8
S'\xc9LQ\xe9(\x86\x92\xbf'
p332
tp333
Rp334
ag4
(g8
S'J\x1cf\xa9\xa4\x01\xf4?'
p335
tp336
Rp337
ag4
(g8
S'g\xf2DE\xb9\xbd\xd1\xbf'
p338
tp339
Rp340
ag4
(g8
S'fx\xdbh\x9cm\xf3?'
p341
tp342
Rp343
ag4
(g8
S'(\xc2\x04\x8a<\xe4\xd9\xbf'
p344
tp345
Rp346
ag4
(g8
S'\x81O\x84\xcc\x03\xf7\xe5\xbf'
p347
tp348
Rp349
ag4
(g8
S'tA\xc3 \xd5\xf4\xbb?'
p350
tp351
Rp352
ag4
(g8
S'rAnQ\xcae\xf0\xbf'
p353
tp354
Rp355
ag4
(g8
S'\xc5%we\xc9\x1d\xe7?'
p356
tp357
Rp358
ag4
(g8
S'\xcb\xb3\xc3\xb6\xcb\r\xe7?'
p359
tp360
Rp361
ag4
(g8
S'\xdf\x00,aS\xac\xd9\xbf'
p362
tp363
Rp364
ag4
(g8
S'p\xe4\xff%\xb2`\xd7?'
p365
tp366
Rp367
ag4
(g8
S'\xb7\xa3;\x1d\xb4X\xd0?'
p368
tp369
Rp370
ag4
(g8
S'\xf1J\x7f\xcc\xa6\x92\xf8?'
p371
tp372
Rp373
ag4
(g8
S'!V\xde\xc0\xe5\x9c\xf4?'
p374
tp375
Rp376
ag4
(g8
S'\xdf\x88;\x8f@k\xf4?'
p377
tp378
Rp379
ag4
(g8
S'RG\xa0\xe7\xd2\x9a\xee?'
p380
tp381
Rp382
ag4
(g8
S"'v\x07\xb4\x1aX\xb8?"
p383
tp384
Rp385
ag4
(g8
S'\xef\x9d7\x0f\xf3\xec\xc0\xbf'
p386
tp387
Rp388
ag4
(g8
S'\xee\xe7f\xe9zb\xc3?'
p389
tp390
Rp391
ag4
(g8
S'\r\xdbA\xc5\xe1\xd0\x12@'
p392
tp393
Rp394
ag4
(g8
S'\x1dU\x88,!\xa9\xab?'
p395
tp396
Rp397
ag4
(g8
S'\xa7(:\xf3\xf1\xc7\x00@'
p398
tp399
Rp400
ag4
(g8
S'\xa0\xceR\xfa\x86\xce\xde\xbf'
p401
tp402
Rp403
ag4
(g8
S'v\x1a_g\x8cm\xd6\xbf'
p404
tp405
Rp406
ag4
(g8
S'\x9f\xfbB1o\x12\xf6\xbf'
p407
tp408
Rp409
ag4
(g8
S'\xea\xa6#\xfc=M\xe1?'
p410
tp411
Rp412
ag4
(g8
S'\xc7\xe5K^\x9a\x85\xde?'
p413
tp414
Rp415
ag4
(g8
S'\xf94\xea\xa8\xbf\xf6\xe1\xbf'
p416
tp417
Rp418
ag4
(g8
S'\xc3\xe0\xd1\xbe\x89\x0f\xf7?'
p419
tp420
Rp421
ag4
(g8
S'*a|\x8dt\x0f\xf8?'
p422
tp423
Rp424
ag4
(g8
S'X\xcb(E\xa7\x88\xd6?'
p425
tp426
Rp427
ag4
(g8
S'\xc4\xf1+4H\xd6\xe9?'
p428
tp429
Rp430
ag4
(g8
S')\xa2A\x88\xf0\xee\xd1?'
p431
tp432
Rp433
ag4
(g8
S'\xfd\x9a\r\x9a\x8e\x8b\xf5?'
p434
tp435
Rp436
ag4
(g8
S"\xeb'\x8a\xd6\xff\x95\x03@"
p437
tp438
Rp439
ag4
(g8
S'3S\t\xbb,P\xde\xbf'
p440
tp441
Rp442
ag4
(g8
S'\t\xc1\xfc\xc4W\x97\xfb?'
p443
tp444
Rp445
ag4
(g8
S'\r\xdd3\xcc\x8e\xb6\xd3?'
p446
tp447
Rp448
ag4
(g8
S'\xf9\xe1\xfc4\x83/\xd7\xbf'
p449
tp450
Rp451
ag4
(g8
S'\x8d8\xd3eW\xed\xd5?'
p452
tp453
Rp454
ag4
(g8
S'\xc7\xab.J\x03A\xe4?'
p455
tp456
Rp457
ag4
(g8
S'P\x93\xb5\x90\xb2\xf9\x0b@'
p458
tp459
Rp460
ag4
(g8
S'\x97\xb5A-"\xf6\xdc?'
p461
tp462
Rp463
ag4
(g8
S'\x1a+g`\x8b\xf6\xe6?'
p464
tp465
Rp466
ag4
(g8
S'\xe9\x18\xfb\xcb\xc7(\x9b?'
p467
tp468
Rp469
ag4
(g8
S'\x8f\xefxN\x00L\xf3\xbf'
p470
tp471
Rp472
ag4
(g8
S'\xb4\x8e\x83\xc0\x93\xf5\xfa?'
p473
tp474
Rp475
ag4
(g8
S'Y\xadE\xe5\xba\xcc\xf6?'
p476
tp477
Rp478
ag4
(g8
S'*l\xf1\x94"%\xd0?'
p479
tp480
Rp481
ag4
(g8
S'%1\x1b\xddp\x9c\xd0?'
p482
tp483
Rp484
ag4
(g8
S'\xa2\x97\xbb\xcb\xf6\xcf\xfa?'
p485
tp486
Rp487
ag4
(g8
S'#\x8a\xaag\x1b\x9d\xf8?'
p488
tp489
Rp490
ag4
(g8
S'*\x07\xbcE\x0f\xd4\xf1\xbf'
p491
tp492
Rp493
ag4
(g8
S'h\x9e^v\x08\xa5\xbc?'
p494
tp495
Rp496
ag4
(g8
S'\x9a%\xdd\x16\xb2+\xd8?'
p497
tp498
Rp499
ag4
(g8
S'7\xb7s&\xe7\x15\xf1?'
p500
tp501
Rp502
ag4
(g8
S':\xbe\xc6\x81:\xa7\x00@'
p503
tp504
Rp505
ag4
(g8
S'\xaf\x9cK\xd3 T\xfc?'
p506
tp507
Rp508
ag4
(g8
S'\x97>\xc60\x81\xdc\x08@'
p509
tp510
Rp511
ag4
(g8
S'*\x18\xa2\xcc\x04R\xe4?'
p512
tp513
Rp514
ag4
(g8
S'\xf0\x84_\xff\x90\n\xdf?'
p515
tp516
Rp517
ag4
(g8
S'\xdd\x01\x15\x0e4\xc3\xf4?'
p518
tp519
Rp520
ag4
(g8
S'\xf7\x0b\xb4\xad\xb5\x03\xc3?'
p521
tp522
Rp523
ag4
(g8
S'\xbf\xaf3\xecz\xb9\xe2?'
p524
tp525
Rp526
ag4
(g8
S'\xc9\xe6Cn\xe5\xc7\xfb?'
p527
tp528
Rp529
ag4
(g8
S'\xe16\xb9|\xdaH\x06@'
p530
tp531
Rp532
ag4
(g8
S'\xfar\x08\r\t\x0e\xf4?'
p533
tp534
Rp535
ag4
(g8
S'\xa5:m&\x08\xd8\xde\xbf'
p536
tp537
Rp538
ag4
(g8
S'\xf7x+\xb5\xd9\xf0\xc5?'
p539
tp540
Rp541
ag4
(g8
S'\x15\xc4B\xea|\x0c\x01@'
p542
tp543
Rp544
ag4
(g8
S'\xa8y \x81V+\xef?'
p545
tp546
Rp547
ag4
(g8
S'\xb5+&\xfa2\x98\xf1?'
p548
tp549
Rp550
ag4
(g8
S'\xf2\xa1F\xf1_\x80\xf6?'
p551
tp552
Rp553
ag4
(g8
S'\xdb\xc6\x03\xed\xe0b\xe6?'
p554
tp555
Rp556
ag4
(g8
S'N\xad\xcc\x14\xa7\xac\xda\xbf'
p557
tp558
Rp559
ag4
(g8
S'@\x94\xf9\xd0\x89a\n@'
p560
tp561
Rp562
ag4
(g8
S'k\xf1MQ\x91\xa3\xe1?'
p563
tp564
Rp565
ag4
(g8
S'\xf2\xd8\x98?9O\xf4?'
p566
tp567
Rp568
ag4
(g8
S'\xa1\xcc\xab\xe9\xeam\xe3?'
p569
tp570
Rp571
ag4
(g8
S'\xa3\xe3S\xe1]\x87\xea?'
p572
tp573
Rp574
ag4
(g8
S'68\xdaPPG\xd6?'
p575
tp576
Rp577
ag4
(g8
S'\x8a\x1b\x0b\xd6n\x8b\xd6?'
p578
tp579
Rp580
ag4
(g8
S'\xf4\x80\xb0\xbb\x18\xcd\xcb\xbf'
p581
tp582
Rp583
ag4
(g8
S'\xa7\xaa\xac\xcf\x0cM\xfb?'
p584
tp585
Rp586
ag4
(g8
S'\xc3\x99P\x18i\x03\xed?'
p587
tp588
Rp589
ag4
(g8
S'F\xe4\x03-\xd3\xb5\xf5?'
p590
tp591
Rp592
ag4
(g8
S'\x92\xaf\xd3\xc1\x0b\xf8\x02@'
p593
tp594
Rp595
ag4
(g8
S'\x9d?\xd1\x85\xccw\xa4?'
p596
tp597
Rp598
ag4
(g8
S'\x8ce\xcf?\xb3\xa6\xeb?'
p599
tp600
Rp601
ag4
(g8
S'$Q\xd9\x19\x8e>\xe5?'
p602
tp603
Rp604
ag4
(g8
S'\x99\xdd;\x08a\x16\xf6?'
p605
tp606
Rp607
ag4
(g8
S'a\x9c\x01=u\xcc\xc9?'
p608
tp609
Rp610
ag4
(g8
S'I\xc8<\x0c$=\xbf\xbf'
p611
tp612
Rp613
ag4
(g8
S'\xae\xf9A\x0e\x92>\xe7?'
p614
tp615
Rp616
ag4
(g8
S'ld\x04\x1dDS\xd2?'
p617
tp618
Rp619
ag4
(g8
S'M\xcbS\xdd\xf20\xf0?'
p620
tp621
Rp622
ag4
(g8
S'@cL\xdb\x88\xc1\xda?'
p623
tp624
Rp625
ag4
(g8
S'\xa7\x980\x1dk\xbc\xe7?'
p626
tp627
Rp628
ag4
(g8
S'{\x01L\xa8\x8fg\xf6?'
p629
tp630
Rp631
ag4
(g8
S'G\xdc\x06\x91\xbf\xb4\xe3?'
p632
tp633
Rp634
ag4
(g8
S'\\\xf8\x1b\xceMA\xce?'
p635
tp636
Rp637
ag4
(g8
S'\xfe=\x1e\n3]\xf2?'
p638
tp639
Rp640
ag4
(g8
S'\xf2\x87nG$\xf5\xdd?'
p641
tp642
Rp643
ag4
(g8
S'\x8b\x19\xb0-\x16\xca\xff?'
p644
tp645
Rp646
ag4
(g8
S'\x93\x86j\x07\xa4\x81\xf3\xbf'
p647
tp648
Rp649
ag4
(g8
S'\x1bb\xdc\x1c\x89\xe8\xb8\xbf'
p650
tp651
Rp652
ag4
(g8
S'\xfe\xc0G%\xef\xea\xd6\xbf'
p653
tp654
Rp655
ag4
(g8
S'\xc3&\x98?v\n\xd9?'
p656
tp657
Rp658
ag4
(g8
S'\x96\xaa\xe6\xe5D3\xd1\xbf'
p659
tp660
Rp661
ag4
(g8
S'\x0fC\x94X\xb7\xd1\xe6?'
p662
tp663
Rp664
ag4
(g8
S'~\xe6\x80*e2\xb3?'
p665
tp666
Rp667
ag4
(g8
S'\x88\t\xdfZ\xdb\xc0\xa4?'
p668
tp669
Rp670
ag4
(g8
S'\x92\xe1l\x9b$\\\xf9?'
p671
tp672
Rp673
ag4
(g8
S'z\xc0.\xa8\xe7R\xfa?'
p674
tp675
Rp676
ag4
(g8
S"\xc7\xd5'\xfa\x18\xc0\xe7?"
p677
tp678
Rp679
ag4
(g8
S'Z\\\x8f\xc5\xc8\x90\xd6?'
p680
tp681
Rp682
ag4
(g8
S'\xec\x8c\x92\xd6M\x84\xda?'
p683
tp684
Rp685
ag4
(g8
S'~\x82\xe5\xde3;\xe3?'
p686
tp687
Rp688
ag4
(g8
S'\x00\xa4\xc2\xb6p\xb1\xfc?'
p689
tp690
Rp691
ag4
(g8
S'\xc5!\xe0\xa1>\xc1\x02@'
p692
tp693
Rp694
ag4
(g8
S'2\x9d,\xad\xf8C\x02@'
p695
tp696
Rp697
ag4
(g8
S'7\xae\xd5\xa8)\xf4\xf3\xbf'
p698
tp699
Rp700
ag4
(g8
S'\xdex\xd0c\x07\xe0\xf9?'
p701
tp702
Rp703
ag4
(g8
S'Mx\xe9\xd0ct\xf4?'
p704
tp705
Rp706
ag4
(g8
S'\xc1\x94\xc6\xbfK\x12\xf8?'
p707
tp708
Rp709
ag4
(g8
S'n\x99]\x82\xd4\x97\xe1?'
p710
tp711
Rp712
ag4
(g8
S'a\x1a1(9\x9e\xc8?'
p713
tp714
Rp715
ag4
(g8
S'Z\xfd\x84\x92\xaa\x16\xda?'
p716
tp717
Rp718
ag4
(g8
S'\x9c\x03a%\xe0\x17\xfc?'
p719
tp720
Rp721
ag4
(g8
S'\xe8&QK\x04e\xa8\xbf'
p722
tp723
Rp724
ag4
(g8
S'\x12\xcfSh\x10\x98\xef?'
p725
tp726
Rp727
ag4
(g8
S'\x93\xde\xe5M\xc1\xba\xed?'
p728
tp729
Rp730
ag4
(g8
S'S\xb2!\xbe\xa1\x89\xe4?'
p731
tp732
Rp733
ag4
(g8
S"\n1\xa42'8\xda?"
p734
tp735
Rp736
ag4
(g8
S'w\x8f\x0e\xda\xf8\xc3\xf4?'
p737
tp738
Rp739
ag4
(g8
S'\xff~a\xfa\xd1\\\xfd?'
p740
tp741
Rp742
ag4
(g8
S'g\xcaO\x9c\xe9\xd3\xfa?'
p743
tp744
Rp745
ag4
(g8
S'j;\xf6_\xb5\xca\xf2?'
p746
tp747
Rp748
ag4
(g8
S'\xa8\x05r\xf67\xd7\xe8?'
p749
tp750
Rp751
ag4
(g8
S'msK/\xbb^\xc0\xbf'
p752
tp753
Rp754
ag4
(g8
S'\xc6\xc5*6\xf8\x9d\xe0?'
p755
tp756
Rp757
ag4
(g8
S'\x90d\x9eAB&\xf5?'
p758
tp759
Rp760
ag4
(g8
S'\xf3^bd]\xc5\x05@'
p761
tp762
Rp763
ag4
(g8
S'S\xf0\xa0I\x16\x88\xe2?'
p764
tp765
Rp766
ag4
(g8
S'frW\xf6\xe9G\xf5?'
p767
tp768
Rp769
ag4
(g8
S'\xd0u\x84\n\xddn\xdf?'
p770
tp771
Rp772
ag4
(g8
S'<&\xaf\x0b\xe4f\x03@'
p773
tp774
Rp775
ag4
(g8
S'\xac\xf6\x16\x15M\x85\xf0?'
p776
tp777
Rp778
ag4
(g8
S'\x8a{\xe9LS\x00\xed?'
p779
tp780
Rp781
ag4
(g8
S'\xcb\x18\x8c\x8f\x1a\x13\xe6?'
p782
tp783
Rp784
ag4
(g8
S'\xa7\xe1\xf6\xda\xfe\x8b\xbb?'
p785
tp786
Rp787
ag4
(g8
S'\xd5p\xec4\x83\x98\xee?'
p788
tp789
Rp790
ag4
(g8
S'\xcc\x1dO\x99){\xda?'
p791
tp792
Rp793
ag4
(g8
S'\xe0\xe7\xfd?`~\xfd?'
p794
tp795
Rp796
ag4
(g8
S'\xe3\x17\xfa\xcd\xaf\x1b\xd1?'
p797
tp798
Rp799
ag4
(g8
S'y\x1dT\x86\x047\xf4\xbf'
p800
tp801
Rp802
ag4
(g8
S'\xa4uB=J\xea\xd1?'
p803
tp804
Rp805
ag4
(g8
S'\xd3\xa5\xd3\x0b\xc2\xa1\xe8?'
p806
tp807
Rp808
ag4
(g8
S'\x7fwUZ\x96\xa5\x97\xbf'
p809
tp810
Rp811
ag4
(g8
S'F?3z]\xf0\xd9\xbf'
p812
tp813
Rp814
ag4
(g8
S'\xb1yx\x8eo\xae\xcb?'
p815
tp816
Rp817
ag4
(g8
S'/(\x05]m\xa3\xfd?'
p818
tp819
Rp820
ag4
(g8
S'm\x875\xe4\xc6\r\xf1\xbf'
p821
tp822
Rp823
ag4
(g8
S'\x1e\xe3y\xce\xb0(\xdf?'
p824
tp825
Rp826
ag4
(g8
S'\x9f<SQ\rj\xdd\xbf'
p827
tp828
Rp829
ag4
(g8
S'W\xe4\x85\xf2\x11\x83\xfc?'
p830
tp831
Rp832
ag4
(g8
S'\xa2\xeb\xad\xee\xe7\x04\xe7?'
p833
tp834
Rp835
ag4
(g8
S':b\xa1>\xa0*\xef\xbf'
p836
tp837
Rp838
ag4
(g8
S'\xd0\xfe!\xfb\xc7:\x0f@'
p839
tp840
Rp841
ag4
(g8
S'@\xea\xba\xfb\xb7n\xea\xbf'
p842
tp843
Rp844
ag4
(g8
S'~\xdd_\x13;Q\xd0?'
p845
tp846
Rp847
ag4
(g8
S'm\x06\xcf\xc0J\xe5\xf8?'
p848
tp849
Rp850
ag4
(g8
S'-O\xa8j\x12\xef\xd7?'
p851
tp852
Rp853
ag4
(g8
S'\x8f\xebKkP\x86\xb0\xbf'
p854
tp855
Rp856
ag4
(g8
S'\x91\x9e\xa0Q\xac{\xf8?'
p857
tp858
Rp859
ag4
(g8
S'@\xc58\x1c9\t\xf4?'
p860
tp861
Rp862
ag4
(g8
S'\xf5\xc1mX\x94\xcc\xcf\xbf'
p863
tp864
Rp865
ag4
(g8
S'\xce\xc2:t\xa2\xed\xce?'
p866
tp867
Rp868
ag4
(g8
S"\xe1'\tv\x86\x03\x04\xc0"
p869
tp870
Rp871
ag4
(g8
S'\xf6\x1b9P\x0f%\xf3?'
p872
tp873
Rp874
ag4
(g8
S'\xe8PZ\xd2gJ\xf9?'
p875
tp876
Rp877
ag4
(g8
S'y\xcd\xdb-"I\xf1?'
p878
tp879
Rp880
ag4
(g8
S'\xe7`wh,\x89\r@'
p881
tp882
Rp883
ag4
(g8
S'}\xf0\x98\xe6\xc3\x03\xdc?'
p884
tp885
Rp886
ag4
(g8
S'\xb4S\x9f\x08\xab\xca\xb6?'
p887
tp888
Rp889
ag4
(g8
S'\xcf\x13\x89\xf2\xe1}\xf0?'
p890
tp891
Rp892
ag4
(g8
S'\xb2d\x1fO\xb9\xe5\x00@'
p893
tp894
Rp895
ag4
(g8
S'\x946\x1e\xfa\xbak\xe4\xbf'
p896
tp897
Rp898
ag4
(g8
S'\x1a^I\x06;5\x08\xc0'
p899
tp900
Rp901
ag4
(g8
S'\x98Z\xb5\xca&\x15\xec?'
p902
tp903
Rp904
ag4
(g8
S'\xdc\xcatQ\xa9;\x0f@'
p905
tp906
Rp907
ag4
(g8
S'\x8a9}\xa9\x98g\xf2?'
p908
tp909
Rp910
ag4
(g8
S'&\xb9=\x92\x9c\xc4\xe2?'
p911
tp912
Rp913
ag4
(g8
S'\xe8\x93\xda\x85\xa0\xae\xb0?'
p914
tp915
Rp916
ag4
(g8
S'}R\r\xb6\xcd9\xc6?'
p917
tp918
Rp919
ag4
(g8
S'c^\t\xcbFI\xc7\xbf'
p920
tp921
Rp922
ag4
(g8
S'\xc1N\x8boR\xba\xcc?'
p923
tp924
Rp925
ag4
(g8
S'\xb1\x0e%\x8a\x16\xc5\x98?'
p926
tp927
Rp928
ag4
(g8
S'\x9a\x8e\xef\x8d\xc4\xa0\xa7\xbf'
p929
tp930
Rp931
ag4
(g8
S'\xa5\x1c\xe7\xb5\xe6\x85\xf6?'
p932
tp933
Rp934
ag4
(g8
S'\xb7k{,\x1aW\xe7?'
p935
tp936
Rp937
ag4
(g8
S'j\xe8;\xa7\x07\x82\xfe?'
p938
tp939
Rp940
ag4
(g8
S'M \x80\xbfK\xe6\xc9\xbf'
p941
tp942
Rp943
ag4
(g8
S'\xc4\xa9u\t\xd6\x8e\xc5\xbf'
p944
tp945
Rp946
ag4
(g8
S'\xdeq\xafh\x81I\xed\xbf'
p947
tp948
Rp949
ag4
(g8
S'\x16\xec\x1e\xb9M\xd5\xf0?'
p950
tp951
Rp952
ag4
(g8
S'\xfe\x97\xb4\x01\xa1\xc7\x07@'
p953
tp954
Rp955
ag4
(g8
S'mo\xb4\t^\xda\xfb?'
p956
tp957
Rp958
ag4
(g8
S'\x08\xccCmP\x00\x9b?'
p959
tp960
Rp961
ag4
(g8
S'\xbc0\x89\xb1\x1c\xfb\x01@'
p962
tp963
Rp964
ag4
(g8
S'mt\x1ft\x959\xde?'
p965
tp966
Rp967
ag4
(g8
S'\x00\xe5\xe2\xf2\x11\x14\xd0?'
p968
tp969
Rp970
ag4
(g8
S'\x00\x89CRg\xd1\xd8?'
p971
tp972
Rp973
ag4
(g8
S'\xc4\xe0w\x01\xccD\xe5?'
p974
tp975
Rp976
ag4
(g8
S'U_\xae\x8a\xdby\xf0?'
p977
tp978
Rp979
ag4
(g8
S'\xcf\xc9\x99+\xc6\xb7\xf4\xbf'
p980
tp981
Rp982
ag4
(g8
S'"\x18\r\x0cQ_\xda?'
p983
tp984
Rp985
ag4
(g8
S'@\x19\x9d\x07\xe8\x83\xf4?'
p986
tp987
Rp988
ag4
(g8
S'8|\xfaR\xce\xb1\xe6?'
p989
tp990
Rp991
ag4
(g8
S'6b]D\x7f\xe5\xd0?'
p992
tp993
Rp994
ag4
(g8
S'\xff\xc0\xff\xb7\xfa\x90\xb5\xbf'
p995
tp996
Rp997
ag4
(g8
S'Vi\xc9\xca\xdfJ\xf3?'
p998
tp999
Rp1000
ag4
(g8
S'_\xe6\x9a\xf8J\xca\xe4?'
p1001
tp1002
Rp1003
ag4
(g8
S'k\xaf\xef\x85\xb4K\xf3?'
p1004
tp1005
Rp1006
ag4
(g8
S'Z\x9c\xa557M\xb7?'
p1007
tp1008
Rp1009
ag4
(g8
S'\xd1\xe4\x07\x8f\xb1\xc3\xff?'
p1010
tp1011
Rp1012
ag4
(g8
S'\xe3Y;:\rP\xf1?'
p1013
tp1014
Rp1015
ag4
(g8
S'D\x023\xeb\x9d\xab\xbc?'
p1016
tp1017
Rp1018
ag4
(g8
S'\xf5k\x956\xff\x0b\xd3?'
p1019
tp1020
Rp1021
ag4
(g8
S'P\xe8I\x00\xab\xb9\xe6?'
p1022
tp1023
Rp1024
ag4
(g8
S'\x12\x9c\x85\x02N_\xdd?'
p1025
tp1026
Rp1027
ag4
(g8
S'\xd2\xb0\xf9\xb0\x01_\x00@'
p1028
tp1029
Rp1030
ag4
(g8
S'G} 6\x155\x00@'
p1031
tp1032
Rp1033
ag4
(g8
S'\xf6\xcfK\xb8\x11(\xea?'
p1034
tp1035
Rp1036
ag4
(g8
S'P^\xb9WB\xec\xec?'
p1037
tp1038
Rp1039
ag4
(g8
S'M^\x1be\xbb.\xff?'
p1040
tp1041
Rp1042
ag4
(g8
S'\t\x1c\x10UX\xd5\xe9?'
p1043
tp1044
Rp1045
ag4
(g8
S'\x0eY\xd4nF\x95\xd5?'
p1046
tp1047
Rp1048
ag4
(g8
S'\x99\x9d\x872\xc0\x02\xd9?'
p1049
tp1050
Rp1051
ag4
(g8
S'u;\x84\xf4\n\xfa\xf1?'
p1052
tp1053
Rp1054
ag4
(g8
S'<\xcb\xc9\x87\x1c\xc3\x03@'
p1055
tp1056
Rp1057
ag4
(g8
S'y\x02\x86\xfdvg\x01@'
p1058
tp1059
Rp1060
ag4
(g8
S'\xc8\xa6)%5e\xd0?'
p1061
tp1062
Rp1063
ag4
(g8
S'\x7f\xae<7A\x10\xe6?'
p1064
tp1065
Rp1066
ag4
(g8
S'\xb0u\xc9B\xfa\xa7\xec\xbf'
p1067
tp1068
Rp1069
ag4
(g8
S'\xcc\x86\xe1\xe7!\xbe\xf5?'
p1070
tp1071
Rp1072
ag4
(g8
S'\xab\xe3\x97;\xf9O\xf9?'
p1073
tp1074
Rp1075
ag4
(g8
S'\xc5v\xb5\xdd\x9c\xd0\xe3?'
p1076
tp1077
Rp1078
ag4
(g8
S';\x1d;\xef\x84A\x08@'
p1079
tp1080
Rp1081
ag4
(g8
S'\xa8\xa7\xccKW\x1f\xf0?'
p1082
tp1083
Rp1084
ag4
(g8
S'\x95?\x08\x85\x87|\xfb?'
p1085
tp1086
Rp1087
ag4
(g8
S'O\n\xff\xf8\xcc\xa2\xb3\xbf'
p1088
tp1089
Rp1090
ag4
(g8
S'u@\x9d\x83\xda<\xc5?'
p1091
tp1092
Rp1093
ag4
(g8
S'9S\x8c\x1d\xc8\xa7\xc1?'
p1094
tp1095
Rp1096
ag4
(g8
S'\xf7\x9cg\xbf\xe9\x17\x08@'
p1097
tp1098
Rp1099
ag4
(g8
S'\xed\x08\xe8Qd\x8e\xd6?'
p1100
tp1101
Rp1102
ag4
(g8
S'\xfc\x86\xb4\xb0)\x87\xf4?'
p1103
tp1104
Rp1105
ag4
(g8
S'\x8d\xd7\xa5\x7f\x0f(\x04@'
p1106
tp1107
Rp1108
ag4
(g8
S'\xa4v\xb26l\x10y?'
p1109
tp1110
Rp1111
ag4
(g8
S'\x04\xe3{\xe7\xa5E\xe8?'
p1112
tp1113
Rp1114
ag4
(g8
S'N\xe9;pF+\x06@'
p1115
tp1116
Rp1117
ag4
(g8
S'\x9bQL\x8cT*\xe5?'
p1118
tp1119
Rp1120
ag4
(g8
S'^\x08\x81\x9c\x88Y\x9d?'
p1121
tp1122
Rp1123
ag4
(g8
S'fb$\xc7\x18T\x02@'
p1124
tp1125
Rp1126
ag4
(g8
S'\xc5YJ\x9b\x153\x8b?'
p1127
tp1128
Rp1129
ag4
(g8
S'\x0b\xa4\xc7i\xcc\x97\xc8\xbf'
p1130
tp1131
Rp1132
ag4
(g8
S'Z\x197B\xb6\xca\x07@'
p1133
tp1134
Rp1135
ag4
(g8
S'\xe6\x1e\xb1\xeaf\x93\xe3?'
p1136
tp1137
Rp1138
ag4
(g8
S'\xd6\x84V\xf5\x97T\xc0?'
p1139
tp1140
Rp1141
ag4
(g8
S'v\xbb-\xebZ\xf5\xef?'
p1142
tp1143
Rp1144
ag4
(g8
S'T6f\x8b\xc4\xdf\xe5?'
p1145
tp1146
Rp1147
ag4
(g8
S',\xa6\xf4*Fb\xff?'
p1148
tp1149
Rp1150
ag4
(g8
S'\xac#\xb3\xfe\xf6g\xeb?'
p1151
tp1152
Rp1153
ag4
(g8
S'\xb3\xf1b\x13\xff-\xfb?'
p1154
tp1155
Rp1156
ag4
(g8
S'k\x14\xde\n\x19\xc1\xf5?'
p1157
tp1158
Rp1159
ag4
(g8
S'BX`\xd8+I\xd6?'
p1160
tp1161
Rp1162
ag4
(g8
S'\xee\xcb\xbc\xf2\x8c[\xe4?'
p1163
tp1164
Rp1165
ag4
(g8
S'\xf8\x17/\x1d\x17q\xc6?'
p1166
tp1167
Rp1168
ag4
(g8
S'\x19!\xc2 \x8bL\xf6?'
p1169
tp1170
Rp1171
ag4
(g8
S'\xa6\x9eZ\x8d\x0f\x10\xf8?'
p1172
tp1173
Rp1174
ag4
(g8
S'?\xee\xed(\x84\xc8\xb0?'
p1175
tp1176
Rp1177
ag4
(g8
S'\xfd\xf7\xf0-7\xf2\xed?'
p1178
tp1179
Rp1180
ag4
(g8
S'`o{8\xe9=\xfb?'
p1181
tp1182
Rp1183
ag4
(g8
S'U\xcbk\x81\xa4\x00\x01@'
p1184
tp1185
Rp1186
ag4
(g8
S'\x0eT\xce\xb6\x85o\xe3?'
p1187
tp1188
Rp1189
ag4
(g8
S'Bw\xad\xc7\x00\xe1\xe2?'
p1190
tp1191
Rp1192
ag4
(g8
S'\x98\x82I\x9a\x19\xd4\xde\xbf'
p1193
tp1194
Rp1195
ag4
(g8
S'(\xe4\xf8\xaev\r\xd4\xbf'
p1196
tp1197
Rp1198
ag4
(g8
S'\xf7\xf2/Ks.\xf1?'
p1199
tp1200
Rp1201
ag4
(g8
S'\xd1\x0c\xa4TW\x12\xaa?'
p1202
tp1203
Rp1204
ag4
(g8
S'\xe3Z\x98\x13\r\xa4\xe3?'
p1205
tp1206
Rp1207
ag4
(g8
S'\x02\xc2Y.\xd9e\xe8?'
p1208
tp1209
Rp1210
ag4
(g8
S'\xb8\x9f\xb0\x19}\x7f\xe3\xbf'
p1211
tp1212
Rp1213
ag4
(g8
S'\xf7\x89%\x93\xd9$\x00@'
p1214
tp1215
Rp1216
ag4
(g8
S'g\xb3\xd7\x93\xd56\xf1?'
p1217
tp1218
Rp1219
ag4
(g8
S'\x16\t\x0e\xb1\x93l\xe4?'
p1220
tp1221
Rp1222
ag4
(g8
S's)\x88(\x87D\xdd?'
p1223
tp1224
Rp1225
ag4
(g8
S'\xbe[\x18\xbb\x90j\xc9?'
p1226
tp1227
Rp1228
ag4
(g8
S'\x17w\x87\xbf\xc0d\xd5?'
p1229
tp1230
Rp1231
ag4
(g8
S"'\xf5\xa9\xe8\xbc\x80\xe1?"
p1232
tp1233
Rp1234
ag4
(g8
S'J\x08\xcf6@\xf0\xe0?'
p1235
tp1236
Rp1237
ag4
(g8
S'\x83\xf1\xfa2FL\xfc?'
p1238
tp1239
Rp1240
ag4
(g8
S'/\xbe\x8c\x94]-\x08@'
p1241
tp1242
Rp1243
ag4
(g8
S"P\x0eS\xf60'\xf7?"
p1244
tp1245
Rp1246
ag4
(g8
S'*\xf8\xc2Y\x8a\x08\xc6?'
p1247
tp1248
Rp1249
ag4
(g8
S'\xad\x1b\xb1\xfe\x94f\xd6?'
p1250
tp1251
Rp1252
ag4
(g8
S'\x84\xbb\x80\xd8#\xb2\xb5?'
p1253
tp1254
Rp1255
ag4
(g8
S'\xb8\xe9^\x9a&\xca\xf9?'
p1256
tp1257
Rp1258
ag4
(g8
S'\x9d3\xd3\x96\xae\xeb\x10@'
p1259
tp1260
Rp1261
ag4
(g8
S'\xa1\x19_\xb4c\xa8\xdf?'
p1262
tp1263
Rp1264
ag4
(g8
S'o\x89S\xcaR\xbf\xee?'
p1265
tp1266
Rp1267
ag4
(g8
S'U\x83J5\xa8,\x0b@'
p1268
tp1269
Rp1270
ag4
(g8
S'z\xbc\x8b9~_\xbd\xbf'
p1271
tp1272
Rp1273
ag4
(g8
S'\x8c{(^m^\xe7\xbf'
p1274
tp1275
Rp1276
ag4
(g8
S'\x86\x17\x87\xf4\xe5\xe9\xf8?'
p1277
tp1278
Rp1279
ag4
(g8
S'\xb5\xe3\x8f\xd8N<\xeb?'
p1280
tp1281
Rp1282
ag4
(g8
S'\x85\xbf\xbeCGj\xed?'
p1283
tp1284
Rp1285
ag4
(g8
S'%\x05c\x99}G\xd0?'
p1286
tp1287
Rp1288
ag4
(g8
S'\x9f\xa6\xa5\x92q\xbb\xd7?'
p1289
tp1290
Rp1291
ag4
(g8
S'tp[\xab5\x0b\xec?'
p1292
tp1293
Rp1294
ag4
(g8
S'3\ri\x91\x13k\xfe?'
p1295
tp1296
Rp1297
ag4
(g8
S'\xf6\xefcH\x91c\xf6?'
p1298
tp1299
Rp1300
ag4
(g8
S'\xec\xddS]\x8d\x97\xfa?'
p1301
tp1302
Rp1303
ag4
(g8
S'\xce\xf1\xa4Y\xaa\xb8\xc7?'
p1304
tp1305
Rp1306
ag4
(g8
S'j\x02\xaf\xc4\x82\xf6\xc7\xbf'
p1307
tp1308
Rp1309
ag4
(g8
S'8\xc2\xff!\xdb;\x04@'
p1310
tp1311
Rp1312
ag4
(g8
S'\x80R\xc3\xb0`\x0e\xc2?'
p1313
tp1314
Rp1315
ag4
(g8
S'\xf6\xefgK\xc1\xbe\xea?'
p1316
tp1317
Rp1318
ag4
(g8
S'\x9b\x84\xa4\xa7\x9d\x8d\xa7?'
p1319
tp1320
Rp1321
ag4
(g8
S'\x8e\xe5\xb99G\xfe\xe1?'
p1322
tp1323
Rp1324
ag4
(g8
S'\xc0\xd4\xd3\xa8\xd4\x1c\xef?'
p1325
tp1326
Rp1327
ag4
(g8
S'\xf9}\x16\xbcS\xd2\xd3?'
p1328
tp1329
Rp1330
ag4
(g8
S'\xcb\xe7\x14G\x1a\xd8\xe8?'
p1331
tp1332
Rp1333
ag4
(g8
S'\xa7\x18\x87\xc7\x8c=\x01@'
p1334
tp1335
Rp1336
ag4
(g8
S'\xdf\xeaJ\x86\xaa \xa1\xbf'
p1337
tp1338
Rp1339
ag4
(g8
S'1c\x8c_\x14x\xef?'
p1340
tp1341
Rp1342
ag4
(g8
S'S\x17@\x87\xd5\x98\xd9?'
p1343
tp1344
Rp1345
ag4
(g8
S'\xb2\xb2\xdf\xbe\xd0\xbc\xfc?'
p1346
tp1347
Rp1348
ag4
(g8
S'\x92\xe0\xd9\xc7\x85l\xe8?'
p1349
tp1350
Rp1351
ag4
(g8
S'\x91(IO\xd3)\xfe?'
p1352
tp1353
Rp1354
ag4
(g8
S'};\x12{tt\xe8?'
p1355
tp1356
Rp1357
ag4
(g8
S'\xc2\xc8<\x9c\xf0\x8f\xf5?'
p1358
tp1359
Rp1360
ag4
(g8
S')\xf3N#\x9b\x82\x9c\xbf'
p1361
tp1362
Rp1363
ag4
(g8
S'\xd7if\x0e\xfa\x81\xfe?'
p1364
tp1365
Rp1366
ag4
(g8
S'\xa6\x1e\x8b\x94\n\xaa\xd4?'
p1367
tp1368
Rp1369
ag4
(g8
S'\xa0\x8a\xee\x95\xfd\x8e\xa5\xbf'
p1370
tp1371
Rp1372
ag4
(g8
S"'\x95\x11\xff \xa4r?"
p1373
tp1374
Rp1375
ag4
(g8
S'\xbd\x0f\xdf~\x03T\xef?'
p1376
tp1377
Rp1378
ag4
(g8
S'\x85\x91\x83\xf6\x07}\xe4\xbf'
p1379
tp1380
Rp1381
ag4
(g8
S'1I&\x10w\x07\xca\xbf'
p1382
tp1383
Rp1384
ag4
(g8
S'\xd0\xb53>j6\xdc?'
p1385
tp1386
Rp1387
ag4
(g8
S'\x113\xec\xd3\x8b\x1c\xef?'
p1388
tp1389
Rp1390
ag4
(g8
S'\xe2qs\xbc~\xc5\xf0\xbf'
p1391
tp1392
Rp1393
ag4
(g8
S'(c\x1a\x84`\x12\xf2?'
p1394
tp1395
Rp1396
ag4
(g8
S'\x1fLQ\xcf0\x04\xe3?'
p1397
tp1398
Rp1399
ag4
(g8
S'Y\xbe&z\x94h\xf9\xbf'
p1400
tp1401
Rp1402
ag4
(g8
S'U*\xfbj\n\xec\xf8?'
p1403
tp1404
Rp1405
ag4
(g8
S'\xb8\xbe\x07\x81\xe7\xd0\xec?'
p1406
tp1407
Rp1408
ag4
(g8
S'\xebeC\xc2\x8e\x05\xd2?'
p1409
tp1410
Rp1411
ag4
(g8
S'?\x9e\xb8\xfd\x91\x01\xe3?'
p1412
tp1413
Rp1414
ag4
(g8
S'\x11\xc6~\xb3!!\xe9?'
p1415
tp1416
Rp1417
ag4
(g8
S'7\xc1\x18\xb0j3\xc1\xbf'
p1418
tp1419
Rp1420
ag4
(g8
S'\xd3\x9a\x86\xdc\x0c\x07\xf1?'
p1421
tp1422
Rp1423
ag4
(g8
S'\x19`\x9d\x82L\xb6\xb0?'
p1424
tp1425
Rp1426
ag4
(g8
S'\xf1\x9c\xcb\xc0<i\xfa?'
p1427
tp1428
Rp1429
ag4
(g8
S'\xd9\xca1\xc4*\x1a\xe5?'
p1430
tp1431
Rp1432
ag4
(g8
S'1R\tr\xf3\x1d\xdc?'
p1433
tp1434
Rp1435
ag4
(g8
S'\xee\xeaGh\xe2k\xb5\xbf'
p1436
tp1437
Rp1438
ag4
(g8
S'\xa5\xf5\xb2\x95\x84@\xae?'
p1439
tp1440
Rp1441
ag4
(g8
S'\x80\xafL\xc3\xf5\x8d\x08@'
p1442
tp1443
Rp1444
ag4
(g8
S'\x15P\xc4\x83\x9c\x9c\xd0?'
p1445
tp1446
Rp1447
ag4
(g8
S'\x802\xd2\x19\x9f\x85\xf3\xbf'
p1448
tp1449
Rp1450
ag4
(g8
S'}O\xef\xc3D\x9f\xe3?'
p1451
tp1452
Rp1453
ag4
(g8
S'\xba\xb7\x81\x8d\x0e9\xa3?'
p1454
tp1455
Rp1456
ag4
(g8
S'\twe\x12\xdcX\xe3?'
p1457
tp1458
Rp1459
ag4
(g8
S'L\xd5%&u\xec\xfe?'
p1460
tp1461
Rp1462
ag4
(g8
S'4(i\xe6\xa4\x88\xc9?'
p1463
tp1464
Rp1465
ag4
(g8
S'%\xe6k6\xae\x13\x05@'
p1466
tp1467
Rp1468
ag4
(g8
S'\xaa\xc8zI\x04q\xf2?'
p1469
tp1470
Rp1471
ag4
(g8
S'\x99-\x1a4\xeab\xd1?'
p1472
tp1473
Rp1474
ag4
(g8
S'J\xeb\xdc;\x12M\xef?'
p1475
tp1476
Rp1477
ag4
(g8
S'\x86\xed%F>"\xf4?'
p1478
tp1479
Rp1480
ag4
(g8
S'\xe8\xa5v\xe4j\x1f\xd9?'
p1481
tp1482
Rp1483
ag4
(g8
S'\xbb\x82\xb6\x85\xff\xaa\xb6?'
p1484
tp1485
Rp1486
ag4
(g8
S'IQ\x93E\x12!\xdb?'
p1487
tp1488
Rp1489
ag4
(g8
S'\xf3k3\x97\xc8\xc5\xda?'
p1490
tp1491
Rp1492
ag4
(g8
S'|\xfe-($d\xe1\xbf'
p1493
tp1494
Rp1495
ag4
(g8
S'\xdf\x8cH\x8c\x12\x9f\xe8?'
p1496
tp1497
Rp1498
ag4
(g8
S'Q\xba5jn}\xf6?'
p1499
tp1500
Rp1501
ag4
(g8
S'\xaf\xfc\xc2\xa3\xb9\xd6\x00@'
p1502
tp1503
Rp1504
ag4
(g8
S'\xcbz\xd7\x91\xc4\xdf\xe5?'
p1505
tp1506
Rp1507
ag4
(g8
S'[\xe8x\xb6\xa9\xa1\xec?'
p1508
tp1509
Rp1510
ag4
(g8
S'J\xdeD\xbb\xd5\x98\x0c@'
p1511
tp1512
Rp1513
ag4
(g8
S'J\x1eOm\xbe\x00\xe0?'
p1514
tp1515
Rp1516
ag4
(g8
S'\x83\xb1\xc3\x93\x19\x05\x00@'
p1517
tp1518
Rp1519
ag4
(g8
S'\x13\xb5\xc6\xa2\xd6n\xa6?'
p1520
tp1521
Rp1522
ag4
(g8
S'\xfe\xe5\x8du\xb9\xd8\xf0?'
p1523
tp1524
Rp1525
ag4
(g8
S'\x8c\xbc\xa0\xa3\xf64\xf0?'
p1526
tp1527
Rp1528
ag4
(g8
S'\xbb\x88s{\xdd\xbc\xc0?'
p1529
tp1530
Rp1531
ag4
(g8
S"'\xd93\xafBQ\xe4\xbf"
p1532
tp1533
Rp1534
ag4
(g8
S'\xd4\xc2\xf6\xeeK=\xe8?'
p1535
tp1536
Rp1537
ag4
(g8
S':\n\x10~\xf6\x83\xf8?'
p1538
tp1539
Rp1540
ag4
(g8
S'\x92\xb7\xc5&:\x0c\xff?'
p1541
tp1542
Rp1543
ag4
(g8
S'*\xe4\x94\xff\x9a\xde\xf3?'
p1544
tp1545
Rp1546
ag4
(g8
S'\xf2\x97V\x1d\x1d\x8d\x00@'
p1547
tp1548
Rp1549
ag4
(g8
S'[(N\xc3\xf1\xce\xec?'
p1550
tp1551
Rp1552
ag4
(g8
S'\xfa\xbf\x07T9d\xe9?'
p1553
tp1554
Rp1555
ag4
(g8
S'9\x80l\xc5\xcet\xc5?'
p1556
tp1557
Rp1558
ag4
(g8
S'd\xa4)\xf4\xf8\xc0\xcf\xbf'
p1559
tp1560
Rp1561
ag4
(g8
S'\xa326\x0fPT\xf8?'
p1562
tp1563
Rp1564
ag4
(g8
S'\x0e\xe0\xdfr\x8c\xe1\xb5?'
p1565
tp1566
Rp1567
ag4
(g8
S'\xb1H=\xb8)\xee\xf2?'
p1568
tp1569
Rp1570
ag4
(g8
S'\xfe\xe92g~O\xc8?'
p1571
tp1572
Rp1573
ag4
(g8
S'\xf4&\xd6\xb6\xcf\x10\xe0?'
p1574
tp1575
Rp1576
ag4
(g8
S'_\xa8\xad$\x13\x02\xe4?'
p1577
tp1578
Rp1579
ag4
(g8
S'\xaa\x86\xb7\\\x03\xea\xf7?'
p1580
tp1581
Rp1582
ag4
(g8
S'\x10\xdc\x99\x7f\x03\xf2\xfb?'
p1583
tp1584
Rp1585
ag4
(g8
S'\xbb.R\xbcoT\x03@'
p1586
tp1587
Rp1588
ag4
(g8
S'\x1b\xea+18y\xfe?'
p1589
tp1590
Rp1591
ag4
(g8
S'\xbegx\x0f\xda\xa0\xf0?'
p1592
tp1593
Rp1594
ag4
(g8
S'\xef\xa5\xbd\xd2\x14p\xdc?'
p1595
tp1596
Rp1597
ag4
(g8
S'\xab\x1f\xe9\xc7\x103\xc6?'
p1598
tp1599
Rp1600
ag4
(g8
S'\x0f\xa0\xf9\x05jM\x12@'
p1601
tp1602
Rp1603
ag4
(g8
S'>\x93\xb7k\xc5\x08\xd7\xbf'
p1604
tp1605
Rp1606
ag4
(g8
S'\xbfe\x12\xb9iw\xf5?'
p1607
tp1608
Rp1609
ag4
(g8
S'\x8cV-\x95\x9d\x8e\xdb?'
p1610
tp1611
Rp1612
ag4
(g8
S'\xf1$3\xedM\x93\xd3?'
p1613
tp1614
Rp1615
ag4
(g8
S'&\xabQt\xb1\xe5\xe3?'
p1616
tp1617
Rp1618
ag4
(g8
S'\xb5v0T\x9d\xc0\xf2?'
p1619
tp1620
Rp1621
ag4
(g8
S'm\x94\xf4\xb7M&\x0f@'
p1622
tp1623
Rp1624
ag4
(g8
S'\x97I?\xda:\x8a\x01@'
p1625
tp1626
Rp1627
ag4
(g8
S'E\neq76\xdf\xbf'
p1628
tp1629
Rp1630
ag4
(g8
S'\x1a\x93{\xaf\xdaj\xd5?'
p1631
tp1632
Rp1633
ag4
(g8
S'\xa88\xe2\x16\xb9\xbd\xd1\xbf'
p1634
tp1635
Rp1636
ag4
(g8
S'\x7f\x91\xd7\x83\xcde\xde?'
p1637
tp1638
Rp1639
ag4
(g8
S'\xce\xfd\x12\n\xe8\xbb\xf1?'
p1640
tp1641
Rp1642
ag4
(g8
S'\xa0 \xb8-\xef\t\xf8?'
p1643
tp1644
Rp1645
ag4
(g8
S'4\xf1\xd6\x99&\xe3\xf1?'
p1646
tp1647
Rp1648
ag4
(g8
S'\xfb\x7f\x9f\x80\xe0\xc1\xaa?'
p1649
tp1650
Rp1651
ag4
(g8
S'\x970\xeab:\x06\xf0?'
p1652
tp1653
Rp1654
ag4
(g8
S'\xe7\xfc\xaf\x13)L\x98?'
p1655
tp1656
Rp1657
ag4
(g8
S'-\xd7MI\xcdN\xd7?'
p1658
tp1659
Rp1660
ag4
(g8
S'\x1e\xd47\xb3\xb7{\xfc?'
p1661
tp1662
Rp1663
ag4
(g8
S'\x99r.\xf4X\x13\t@'
p1664
tp1665
Rp1666
ag4
(g8
S'\xfb\xfc\x9c\xd7{r|?'
p1667
tp1668
Rp1669
ag4
(g8
S'\xe7\xdd)\xea\x8a\xf9\xeb?'
p1670
tp1671
Rp1672
ag4
(g8
S'E\xa5\x074a\x04\xec?'
p1673
tp1674
Rp1675
ag4
(g8
S'\xd4ys\xdf\x13k\xe4?'
p1676
tp1677
Rp1678
ag4
(g8
S'"K\xb9n\xfa\xeb\xfa?'
p1679
tp1680
Rp1681
ag4
(g8
S'\xf5\xbb\xb3\xfb~\xf1\xcc?'
p1682
tp1683
Rp1684
ag4
(g8
S'l\xc7\x19\xc5\xb9\x9f\xff?'
p1685
tp1686
Rp1687
ag4
(g8
S'\xc4\xa2\x07\xb8kw\x04@'
p1688
tp1689
Rp1690
ag4
(g8
S'\x9d\xc7\x12\xba\xc1q\xd8?'
p1691
tp1692
Rp1693
ag4
(g8
S'a%4\xa5R\xb2\xf0\xbf'
p1694
tp1695
Rp1696
ag4
(g8
S'd\xc2AEz\xd4\xda?'
p1697
tp1698
Rp1699
ag4
(g8
S'\xaf\xb4I\n\xc8\xa3\xfa?'
p1700
tp1701
Rp1702
ag4
(g8
S'\xd4\x0e\x8b\xb6b\xe8\xe5\xbf'
p1703
tp1704
Rp1705
ag4
(g8
S'@+L,.\xcc\xcd?'
p1706
tp1707
Rp1708
ag4
(g8
S'P\x96\xe7\xb7=\xbf\xd1?'
p1709
tp1710
Rp1711
ag4
(g8
S'#\xe8_hj\x13\xf2?'
p1712
tp1713
Rp1714
ag4
(g8
S'C\xfa\xe7I\xe2\xd0\xf4?'
p1715
tp1716
Rp1717
ag4
(g8
S'\xfa\xf7\xbd\x1c\xec5\xfc?'
p1718
tp1719
Rp1720
ag4
(g8
S'\x0b\x9f \xc5\x10S\xf2?'
p1721
tp1722
Rp1723
ag4
(g8
S'@\xa9\xa8\t\x13\xc9`\xbf'
p1724
tp1725
Rp1726
ag4
(g8
S'\x96\xb5\xc292s\xff?'
p1727
tp1728
Rp1729
ag4
(g8
S'*\x9e\\c7U\x08@'
p1730
tp1731
Rp1732
ag4
(g8
S'\xa9\xc3\x98\xb4\xca\x90\xd9?'
p1733
tp1734
Rp1735
ag4
(g8
S'\xcev\x86\x16k\xbf\xf0\xbf'
p1736
tp1737
Rp1738
ag4
(g8
S'\xb7-\xfb\xc9\x1a\x02\xbe\xbf'
p1739
tp1740
Rp1741
ag4
(g8
S'\xc1\x12NE\xa5\x85\xf1?'
p1742
tp1743
Rp1744
ag4
(g8
S'\xbd\x1aYn\xe1c\xfe?'
p1745
tp1746
Rp1747
ag4
(g8
S'H\xa3\xcd\xb6Ac\x95\xbf'
p1748
tp1749
Rp1750
ag4
(g8
S'\x94\x11\xcc\x8d\x7fc\x02\xc0'
p1751
tp1752
Rp1753
ag4
(g8
S'\xbe\t\xd0\x19y\x99\xf1?'
p1754
tp1755
Rp1756
ag4
(g8
S')\xd7f\xc5}\xa1\xee?'
p1757
tp1758
Rp1759
ag4
(g8
S'\xcd\x08}Ms\xc5\xd0?'
p1760
tp1761
Rp1762
ag4
(g8
S'\x95i?\x8e\x84\x9a\xc2\xbf'
p1763
tp1764
Rp1765
ag4
(g8
S'\x8c\x17\xeb:sE\xd7?'
p1766
tp1767
Rp1768
ag4
(g8
S'G_\x8b\xf39k\xe7?'
p1769
tp1770
Rp1771
ag4
(g8
S'\x1a\xae\xf5\xbd\x1f\xc8\xe2?'
p1772
tp1773
Rp1774
ag4
(g8
S'\xd00\t\xf3F\xd5\xcc\xbf'
p1775
tp1776
Rp1777
ag4
(g8
S'_\x17\xe0\x8b\xde\xd4\xd1\xbf'
p1778
tp1779
Rp1780
ag4
(g8
S'!\xd4\x9d\xeb\x10a\xdc?'
p1781
tp1782
Rp1783
ag4
(g8
S"\xc3\xb0D'^\x90\xd0\xbf"
p1784
tp1785
Rp1786
ag4
(g8
S'L\x8d1:\x96\xa2\xc0\xbf'
p1787
tp1788
Rp1789
ag4
(g8
S'\xbc\x1bl\xee\x01u\xd8?'
p1790
tp1791
Rp1792
ag4
(g8
S'\xd6\x18]n\xd0\x91\xe8?'
p1793
tp1794
Rp1795
ag4
(g8
S'\x06D\xb1k\xf1\xf3\x0b@'
p1796
tp1797
Rp1798
ag4
(g8
S'U\xdb[\x13-Z\xf0?'
p1799
tp1800
Rp1801
ag4
(g8
S'Xk\x1fz\x05t\xcd?'
p1802
tp1803
Rp1804
ag4
(g8
S"\x8c\x85\xb6\x88'J\x02@"
p1805
tp1806
Rp1807
ag4
(g8
S'p\x05d\xce\xff\xe9\xf5?'
p1808
tp1809
Rp1810
ag4
(g8
S'\x07\x9fJ5\xed\x11\xc8?'
p1811
tp1812
Rp1813
ag4
(g8
S'\x0f\x0e\xf8\x93^\x95\xfb\xbf'
p1814
tp1815
Rp1816
ag4
(g8
S'?r\x86uc\x12\xea?'
p1817
tp1818
Rp1819
ag4
(g8
S'\xcf\xf7\x17\x98\xf2\x12\xe5?'
p1820
tp1821
Rp1822
ag4
(g8
S'{\x98\xb9\xe2\xd8\xc2\xd4?'
p1823
tp1824
Rp1825
ag4
(g8
S'\xfa\xb3\xb0\xc1\x12\x19\xe4\xbf'
p1826
tp1827
Rp1828
ag4
(g8
S's\x7f,R\xd8"\x01@'
p1829
tp1830
Rp1831
ag4
(g8
S'N\x85>\x96e\x88\xe4?'
p1832
tp1833
Rp1834
ag4
(g8
S'\xa3\xa4Q\x9eF\xda\x02@'
p1835
tp1836
Rp1837
ag4
(g8
S'+\xf9\xf6\xb0I\xe1\xcf?'
p1838
tp1839
Rp1840
ag4
(g8
S'\xf6\xaf9i\x1f\xc0\xec?'
p1841
tp1842
Rp1843
ag4
(g8
S'\xf7\xee\xbfA\xf9\xdc\xd7?'
p1844
tp1845
Rp1846
ag4
(g8
S'\xf7\xf05\xcf\x11\x7f\xe7?'
p1847
tp1848
Rp1849
ag4
(g8
S'\xc1\xaeu\xd1 $\xf0?'
p1850
tp1851
Rp1852
ag4
(g8
S'(cR\x07\xb6\x00\xe8?'
p1853
tp1854
Rp1855
ag4
(g8
S'\xca\x8b\x988.m\xc6?'
p1856
tp1857
Rp1858
ag4
(g8
S'ojz\x8c\xbb~\xe9?'
p1859
tp1860
Rp1861
ag4
(g8
S'\xd9\xee=$\xc1\x15\xe8?'
p1862
tp1863
Rp1864
ag4
(g8
S'\\\x8d\xee\xac\x9d|\xb4\xbf'
p1865
tp1866
Rp1867
ag4
(g8
S'\xb7W\x9e\xceZ\xff\xdb?'
p1868
tp1869
Rp1870
ag4
(g8
S'\xc4\x0eI\x8b\xc1\xf9\xf7?'
p1871
tp1872
Rp1873
ag4
(g8
S'\xad\xb4i\xe5\xf4>\x03@'
p1874
tp1875
Rp1876
ag4
(g8
S'\xfbF\xb3\xbc\xbc\x98\xe8?'
p1877
tp1878
Rp1879
ag4
(g8
S"@\xf0'\x1b2\xef\x01@"
p1880
tp1881
Rp1882
ag4
(g8
S'\xbd\xf1\xd7eK\x00\xd2?'
p1883
tp1884
Rp1885
ag4
(g8
S'\xe2\xc0\xcc+\r\xdf\xed\xbf'
p1886
tp1887
Rp1888
ag4
(g8
S'7\xfb\xb5\ts\xd5\xe4?'
p1889
tp1890
Rp1891
ag4
(g8
S'l\xbcF\xe3\x84\xc3\xfb?'
p1892
tp1893
Rp1894
ag4
(g8
S'\x10\xe2\xe3F.M\xd3?'
p1895
tp1896
Rp1897
ag4
(g8
S'Pb9\x97\xb3\r\xeb?'
p1898
tp1899
Rp1900
ag4
(g8
S'\xbe\xdd\x0c\xb1\xfd\xa3\xe8?'
p1901
tp1902
Rp1903
ag4
(g8
S'\xb3%\x9a\x8c\x1e\xf5\xfa?'
p1904
tp1905
Rp1906
ag4
(g8
S'R\xf2\xbc\xa4\xf1\xc5\xe9\xbf'
p1907
tp1908
Rp1909
ag4
(g8
S'\xe2\xf3\xdf\xa9t\x85\xe6?'
p1910
tp1911
Rp1912
ag4
(g8
S'DK\xfd:\xc1\xb7\xcf?'
p1913
tp1914
Rp1915
ag4
(g8
S'k~\x9e5Z\xcf\xdc?'
p1916
tp1917
Rp1918
ag4
(g8
S'\x06\xfb\x9ei\x1a\x1f\x00@'
p1919
tp1920
Rp1921
ag4
(g8
S'\xa6"\x83\xaf5J\xf6?'
p1922
tp1923
Rp1924
ag4
(g8
S')U_:-&\xe7?'
p1925
tp1926
Rp1927
ag4
(g8
S'C\xd4\xe2|\x97\xc8\xf7?'
p1928
tp1929
Rp1930
ag4
(g8
S'\x04\xe7\xb7\xa4\x01\x8c\xbd\xbf'
p1931
tp1932
Rp1933
ag4
(g8
S'\xdd\xb3-\x88:\xa7\x00@'
p1934
tp1935
Rp1936
ag4
(g8
S'G\xfc\xb4\xe4\x8b\xc2\xde?'
p1937
tp1938
Rp1939
ag4
(g8
S'\xa57S\xa5\xc3\xb3\xd7\xbf'
p1940
tp1941
Rp1942
ag4
(g8
S'\xb0\n\xde\xf0O\xc9\xe2?'
p1943
tp1944
Rp1945
ag4
(g8
S'\x8bH\xb9\x8b3[\x00@'
p1946
tp1947
Rp1948
ag4
(g8
S'/Pz\xeel\x17\xf2?'
p1949
tp1950
Rp1951
ag4
(g8
S'\x96\x90r\x9bg\x9a\xf4?'
p1952
tp1953
Rp1954
ag4
(g8
S'\x0eh\xe1\xdd;\x13\xf8?'
p1955
tp1956
Rp1957
ag4
(g8
S')F\xa2^\x99\n\x07@'
p1958
tp1959
Rp1960
ag4
(g8
S'o\xf9=\x0f\x98\xc0\xf0?'
p1961
tp1962
Rp1963
ag4
(g8
S'\xb2Q~\r\x9a\xfd\x07@'
p1964
tp1965
Rp1966
ag4
(g8
S'{,\xf3hE)\xe1?'
p1967
tp1968
Rp1969
ag4
(g8
S'$\t\xe8\x0e\xda\x19\xeb?'
p1970
tp1971
Rp1972
ag4
(g8
S'\xf0bt\x91\xf2\x10\r@'
p1973
tp1974
Rp1975
ag4
(g8
S'\x04E\x8f\x01E]\xf0?'
p1976
tp1977
Rp1978
ag4
(g8
S'\xb8O\xd3x\xb0\t\xf5?'
p1979
tp1980
Rp1981
ag4
(g8
S'\xaa\xca\x19FDL\xdd?'
p1982
tp1983
Rp1984
ag4
(g8
S'\xd6W\xdaT\x9e\xac\xd0?'
p1985
tp1986
Rp1987
ag4
(g8
S'\x84\xdcI\xa3\xf1\xc5\xe9\xbf'
p1988
tp1989
Rp1990
ag4
(g8
S'X\xe0\x9d\x80p\n\xe7?'
p1991
tp1992
Rp1993
ag4
(g8
S'`\xdb\xd2\x18\xc5\xb3\xbc?'
p1994
tp1995
Rp1996
ag4
(g8
S'f\x0e\xf0l\x9c\xf8\xec?'
p1997
tp1998
Rp1999
ag4
(g8
S'\x00l\x90g\xec\xac\xd3?'
p2000
tp2001
Rp2002
ag4
(g8
S'\xd9\xd2\xf4\x8b\xba\xac\xe6?'
p2003
tp2004
Rp2005
ag4
(g8
S'3\x18\xce(h:\x00@'
p2006
tp2007
Rp2008
ag4
(g8
S'\xd5\xbc\xd9\xa7\xe8\xe2\xd7\xbf'
p2009
tp2010
Rp2011
ag4
(g8
S's\xb7\x16\x1cc\xeb\x01@'
p2012
tp2013
Rp2014
ag4
(g8
S'\xb5\xe9\xb2\xe4\xd08\xe7?'
p2015
tp2016
Rp2017
ag4
(g8
S';\x10m\xd6\xe3\xe6\xeb?'
p2018
tp2019
Rp2020
ag4
(g8
S'w\x8c\xdcBU\xab\xe5?'
p2021
tp2022
Rp2023
ag4
(g8
S'T\x9c3\x92a\x8b\xe2?'
p2024
tp2025
Rp2026
ag4
(g8
S'L\x92\xfd\xd4\x8d\xec\t@'
p2027
tp2028
Rp2029
ag4
(g8
S'pa1\xe9\x91\xac\xeb?'
p2030
tp2031
Rp2032
ag4
(g8
S'\x08\xa3Tc\xa9f\xdf?'
p2033
tp2034
Rp2035
ag4
(g8
S'\xed\xc7\x16>\xed\x88\xf3\xbf'
p2036
tp2037
Rp2038
ag4
(g8
S'\xfdi\xa3\x05\x9dn\xa1?'
p2039
tp2040
Rp2041
ag4
(g8
S'\xc5\xa0\xbaW`T\xdb?'
p2042
tp2043
Rp2044
ag4
(g8
S'\x96\xca%\xf4`!\xf5?'
p2045
tp2046
Rp2047
ag4
(g8
S'\xb59\xd7\xdfP\x85\xd0?'
p2048
tp2049
Rp2050
ag4
(g8
S'\xd2(\xd7\x98\r,\xe2?'
p2051
tp2052
Rp2053
ag4
(g8
S'E\x87\x8d\xe2\\C\x08@'
p2054
tp2055
Rp2056
ag4
(g8
S'0\x1al\xca\x9e\x7f\xfa?'
p2057
tp2058
Rp2059
ag4
(g8
S'\xa4\xcaa!\x03\xbc\xe1?'
p2060
tp2061
Rp2062
ag4
(g8
S'\x13\xae\x83\xad\r\xce\xb1\xbf'
p2063
tp2064
Rp2065
ag4
(g8
S'\xab\xb6\x12\xb0$P\xd1\xbf'
p2066
tp2067
Rp2068
ag4
(g8
S'\xcd\x88\xbaz\x8d\xd2\xfd?'
p2069
tp2070
Rp2071
ag4
(g8
S'U;)\x1dc\xac\xd3?'
p2072
tp2073
Rp2074
ag4
(g8
S'7}\xf4\x1a1q\xe7?'
p2075
tp2076
Rp2077
ag4
(g8
S'A\xca\x05\xe1\xf1\x1b\xd1?'
p2078
tp2079
Rp2080
ag4
(g8
S'\xf2\xc5~\x0cv\x9e\x00@'
p2081
tp2082
Rp2083
ag4
(g8
S'B\xe8\xbc\x0b\xac\xa7\xdb?'
p2084
tp2085
Rp2086
ag4
(g8
S'rQ\xbb\x13\x1aE\xf7?'
p2087
tp2088
Rp2089
ag4
(g8
S'X\xad\x84J^\xf0\xe5?'
p2090
tp2091
Rp2092
ag4
(g8
S'3d\xe3\xa4<Z\xfb\xbf'
p2093
tp2094
Rp2095
ag4
(g8
S'\xe1\x82BE\x14k\xd5?'
p2096
tp2097
Rp2098
ag4
(g8
S'\xa1\r\xa9d{\x1f\xfc\xbf'
p2099
tp2100
Rp2101
ag4
(g8
S'\xa2`\xae!\xdaa\xfb\xbf'
p2102
tp2103
Rp2104
ag4
(g8
S'\xcf\x16\x8f\x80\x0c\x8a\xc1?'
p2105
tp2106
Rp2107
ag4
(g8
S'f\xc4\xac\x8e\x86S\xd4?'
p2108
tp2109
Rp2110
ag4
(g8
S'\xa3\xbb\xf6\xff\xb1\xa0\x06@'
p2111
tp2112
Rp2113
ag4
(g8
S'\x89\xad\xf0\x9b\xf3\xd2\xcd?'
p2114
tp2115
Rp2116
ag4
(g8
S'F\xec\xc5\xcey8\xda?'
p2117
tp2118
Rp2119
ag4
(g8
S'\xe7F\xae\xa9"\xb7\xe8?'
p2120
tp2121
Rp2122
ag4
(g8
S'\xa0M\x14\xea\xbb\xb7\x03@'
p2123
tp2124
Rp2125
ag4
(g8
S'!\x8f\xac\xe9\xfa\x85\xee?'
p2126
tp2127
Rp2128
ag4
(g8
S'\x18p[\xd3\xed]\xe4?'
p2129
tp2130
Rp2131
ag4
(g8
S'\xaf[+\x84G\xa8\x02@'
p2132
tp2133
Rp2134
ag4
(g8
S'\x9b\x89d<\xe1\x12\xe0?'
p2135
tp2136
Rp2137
ag4
(g8
S'\xf5\xf5\xea\x8e\xbc\xaa\x01@'
p2138
tp2139
Rp2140
ag4
(g8
S'\xf3\xca\xce\xdb=\x8b\xd7?'
p2141
tp2142
Rp2143
ag4
(g8
S'\t\x1b39L\xab\x04@'
p2144
tp2145
Rp2146
ag4
(g8
S'\x1a*\x7f\xc8n\xb8\xc0?'
p2147
tp2148
Rp2149
ag4
(g8
S'#\x0cWH\xbb\xdd\xd7?'
p2150
tp2151
Rp2152
ag4
(g8
S'N\x0c\xf8\xdd\xed\x9d\xd8?'
p2153
tp2154
Rp2155
ag4
(g8
S'\xcb\x11\xf6\xa4\xbd\xaf\x06@'
p2156
tp2157
Rp2158
ag4
(g8
S'I\xea?\x9e*\xdf\xfb?'
p2159
tp2160
Rp2161
ag4
(g8
S'\x06I\x04T\xc6\x9d\x02\xc0'
p2162
tp2163
Rp2164
ag4
(g8
S'\xcb\x10r\xe2H\xa4\xe5?'
p2165
tp2166
Rp2167
ag4
(g8
S'\xae\x05\xf7D}b\xd3?'
p2168
tp2169
Rp2170
ag4
(g8
S'(+c\xcaz\x05\xf8?'
p2171
tp2172
Rp2173
ag4
(g8
S'[zk-Fj\xde?'
p2174
tp2175
Rp2176
ag4
(g8
S'\x02\xad=\x8c\x1e\xb4\xef?'
p2177
tp2178
Rp2179
ag4
(g8
S'hj\xa35\xb3P\xf0?'
p2180
tp2181
Rp2182
ag4
(g8
S'\xed<Y\xb1\xa7\x11\xee?'
p2183
tp2184
Rp2185
ag4
(g8
S'\x81\x16\x86\x90\x11\x8a\xf4?'
p2186
tp2187
Rp2188
ag4
(g8
S'c\x8f\x8b\x1f\xaf\xc4\xe2?'
p2189
tp2190
Rp2191
ag4
(g8
S'L\x8d\xf6\xe6~.\xf0?'
p2192
tp2193
Rp2194
ag4
(g8
S'X<\x1bT\x916\xce\xbf'
p2195
tp2196
Rp2197
ag4
(g8
S'\xae\x87w]\xa9u\xf0?'
p2198
tp2199
Rp2200
ag4
(g8
S'\xd2P\xa3\x18fX\xe1?'
p2201
tp2202
Rp2203
ag4
(g8
S'\xa4w\x96\x1bE\xf0\xff?'
p2204
tp2205
Rp2206
ag4
(g8
S"\x83-\x1c\xc8e'\xc0\xbf"
p2207
tp2208
Rp2209
ag4
(g8
S'\xf0\x07\xebY\tr\xe9?'
p2210
tp2211
Rp2212
ag4
(g8
S'D8B\xa3 \xf5\xec?'
p2213
tp2214
Rp2215
ag4
(g8
S'|\x12\xe1\xa3\x96\x89\xd8?'
p2216
tp2217
Rp2218
ag4
(g8
S'\xef\xaa\x83`\xcf\x1f\xee?'
p2219
tp2220
Rp2221
ag4
(g8
S'\xeeY}:\x08\x9a\xe3\xbf'
p2222
tp2223
Rp2224
ag4
(g8
S'2<\x16\x1f\x8dz\xec?'
p2225
tp2226
Rp2227
ag4
(g8
S'\xec/(7\xab\x84\xf8?'
p2228
tp2229
Rp2230
ag4
(g8
S'dt\x98\xdb\x12g\xee?'
p2231
tp2232
Rp2233
ag4
(g8
S'\xb0TmjY*\xc6\xbf'
p2234
tp2235
Rp2236
ag4
(g8
S'\xe4v"\xf8DV\x00\xc0'
p2237
tp2238
Rp2239
ag4
(g8
S',\xe9\xecdW\xba\xf5?'
p2240
tp2241
Rp2242
ag4
(g8
S'vV\xed\xae*\xd1\xec?'
p2243
tp2244
Rp2245
ag4
(g8
S'_\xa7\xf8\x80\xce\xa6\xf3?'
p2246
tp2247
Rp2248
ag4
(g8
S'\xa3q\xc0\x01\x1e\xce\xdc?'
p2249
tp2250
Rp2251
ag4
(g8
S'\xa1\xfe\xdb\x17\x8c%\xe0?'
p2252
tp2253
Rp2254
ag4
(g8
S'\xb1\x97\x0b\xc9^\xea\xe0?'
p2255
tp2256
Rp2257
ag4
(g8
S'\x07\xb4\xd2\x82\xeb\xbf\xbc\xbf'
p2258
tp2259
Rp2260
ag4
(g8
S'@1B\x19$2\xe4?'
p2261
tp2262
Rp2263
ag4
(g8
S'\xba\x8b\x84\xf35\xec\xbb\xbf'
p2264
tp2265
Rp2266
ag4
(g8
S'\x88\x87\xeb\\\x874\xe9?'
p2267
tp2268
Rp2269
ag4
(g8
S'\xf5!\xb2\x1e\x83\xb5\xfb?'
p2270
tp2271
Rp2272
ag4
(g8
S'\x9d\x9e\xc2\xfevB\x01@'
p2273
tp2274
Rp2275
ag4
(g8
S'\xe8D\x98\xb4\x9a\xc2\xc5?'
p2276
tp2277
Rp2278
ag4
(g8
S'\x11\xaf\x1ckC\x01\xe2?'
p2279
tp2280
Rp2281
ag4
(g8
S'\x16H\x90\x99\xe9c\xe4?'
p2282
tp2283
Rp2284
ag4
(g8
S'\xb9\\\xa8a\xe92\x02@'
p2285
tp2286
Rp2287
ag4
(g8
S"\xc3'\xd0\x8b\x9a\x08\xd9?"
p2288
tp2289
Rp2290
ag4
(g8
S'a8\xef\xf4sj\xa1\xbf'
p2291
tp2292
Rp2293
ag4
(g8
S'\x12\xfdB\x95l\x8f\xf5?'
p2294
tp2295
Rp2296
ag4
(g8
S'\xff\xcc\xae;Y@\xef?'
p2297
tp2298
Rp2299
ag4
(g8
S'i\x04E\xabP\x10\x82\xbf'
p2300
tp2301
Rp2302
ag4
(g8
S'5\xbd\x179*\xe0\x02@'
p2303
tp2304
Rp2305
ag4
(g8
S'\xa47)\xfay\xbf\xa0?'
p2306
tp2307
Rp2308
ag4
(g8
S'\x9b\x14\xc1\xd4`\xda\x0b@'
p2309
tp2310
Rp2311
ag4
(g8
S'\x12f\xe9k-\x04\xd8\xbf'
p2312
tp2313
Rp2314
ag4
(g8
S'\xf0\xd9\x9e\xa7\xecL\xbd?'
p2315
tp2316
Rp2317
ag4
(g8
S'\xcb\x08n[\x98\xff\xfc?'
p2318
tp2319
Rp2320
ag4
(g8
S'!K\xa4\x82<v\xe2?'
p2321
tp2322
Rp2323
ag4
(g8
S'5b\xf5\xe7U\x1d\xe0?'
p2324
tp2325
Rp2326
ag4
(g8
S'-\xa0\xc7\x93:\x87\xe1?'
p2327
tp2328
Rp2329
ag4
(g8
S'\xb3Q\x8c,kr\xbc?'
p2330
tp2331
Rp2332
ag4
(g8
S'K{\xb0\xb5\x17E\xd3?'
p2333
tp2334
Rp2335
ag4
(g8
S'g\xdc\x90|\xf31\x9c\xbf'
p2336
tp2337
Rp2338
ag4
(g8
S'd\xc4E\xe5\xa07\xd5?'
p2339
tp2340
Rp2341
ag4
(g8
S'HJ\x91\xb7}a\xdd?'
p2342
tp2343
Rp2344
ag4
(g8
S'a\x1a\x9dj\xddw\x01@'
p2345
tp2346
Rp2347
ag4
(g8
S'\xf0d@y\n\xbc\xec?'
p2348
tp2349
Rp2350
ag4
(g8
S'W\x13\xc2\\\x15\xb0\xef?'
p2351
tp2352
Rp2353
ag4
(g8
S'\x11*\xc6\x97\xaf#\xd9\xbf'
p2354
tp2355
Rp2356
ag4
(g8
S'\xb2l\xf3i\xe2\x99\n@'
p2357
tp2358
Rp2359
ag4
(g8
S'E\x1c\x9a\x9a\xf4\xb8\xf9?'
p2360
tp2361
Rp2362
ag4
(g8
S'-\xddl\xfbG\xa6\xe4?'
p2363
tp2364
Rp2365
ag4
(g8
S'\xc7Q\rv$r\xf1?'
p2366
tp2367
Rp2368
ag4
(g8
S'7\x90\xb58y&\xd7?'
p2369
tp2370
Rp2371
ag4
(g8
S'\xe9\xd3\x05~\x0f\x02\xd3?'
p2372
tp2373
Rp2374
ag4
(g8
S'kc\xd7S\xf2y\xe2?'
p2375
tp2376
Rp2377
ag4
(g8
S'\xdaA\xcc?T!\xd8\xbf'
p2378
tp2379
Rp2380
ag4
(g8
S'\x126g\xe7\xbe\xe1\x96\xbf'
p2381
tp2382
Rp2383
ag4
(g8
S'Q\xb6A\xa0V\xa1\xf8?'
p2384
tp2385
Rp2386
ag4
(g8
S'o\x87\x89,\xfd\xc1\xde?'
p2387
tp2388
Rp2389
ag4
(g8
S'\xd9\x03e\xa5\xd1\x12\xf3?'
p2390
tp2391
Rp2392
ag4
(g8
S'\xbbJG\xb3n(\xd9\xbf'
p2393
tp2394
Rp2395
ag4
(g8
S'!\x12\xf8+\x07G\xe6?'
p2396
tp2397
Rp2398
ag4
(g8
S'\x9ddn\xf2)\xc7\xec?'
p2399
tp2400
Rp2401
ag4
(g8
S'5\t!\xf1\xe9\\\xd4?'
p2402
tp2403
Rp2404
ag4
(g8
S'\xf8\xcf\xc1\xec\xd5\xa1\xdb?'
p2405
tp2406
Rp2407
ag4
(g8
S'sW\xf8\x9f\xda\x12\xd9?'
p2408
tp2409
Rp2410
ag4
(g8
S'\xe1\xf959\xaa\x16\xea?'
p2411
tp2412
Rp2413
ag4
(g8
S"\x9b\xaa\xe1\x8d'\xab\xd9?"
p2414
tp2415
Rp2416
ag4
(g8
S'\xb4\x9f)\xa2\xc4\xdf\xe5?'
p2417
tp2418
Rp2419
ag4
(g8
S'\xcd\xe3\x88\xe2\x07c\xf8?'
p2420
tp2421
Rp2422
ag4
(g8
S'\xbf@\x02\x9fbI\xef?'
p2423
tp2424
Rp2425
ag4
(g8
S'<\xd7\x86\xea\xaf\xe3\xe7?'
p2426
tp2427
Rp2428
ag4
(g8
S'\xbe\xe8\xc6\xfeMQ\x88\xbf'
p2429
tp2430
Rp2431
ag4
(g8
S's\xce\xb3$E \xdc?'
p2432
tp2433
Rp2434
ag4
(g8
S'I\x12gb\xae\x0b\xee?'
p2435
tp2436
Rp2437
ag4
(g8
S"'\xfb\xea\xfa\x8d\xd5\xc9\xbf"
p2438
tp2439
Rp2440
ag4
(g8
S'\x7f\xf5\xc6\r\x052\xcb?'
p2441
tp2442
Rp2443
ag4
(g8
S'\xd0\xf1\x0f\xa0\xf7Y\xd9?'
p2444
tp2445
Rp2446
ag4
(g8
S'\xc9t\xc7\x9a\xb9\x18\xf0?'
p2447
tp2448
Rp2449
ag4
(g8
S';\x90W5<\x12\xef?'
p2450
tp2451
Rp2452
ag4
(g8
S'\x8fu\xb9I\xcbv\xdc?'
p2453
tp2454
Rp2455
ag4
(g8
S'\xb3@6\x96\xdc\x1d\xeb?'
p2456
tp2457
Rp2458
ag4
(g8
S'\x065y\xe0\xcf\xe1\xf9\xbf'
p2459
tp2460
Rp2461
ag4
(g8
S"\x8e\xe3|\xfd'\xcb\xf1?"
p2462
tp2463
Rp2464
ag4
(g8
S'\xecO\x00\x03\xaf\xca\xb6?'
p2465
tp2466
Rp2467
ag4
(g8
S'B\x01\xc9\xfa\x97g\x03@'
p2468
tp2469
Rp2470
ag4
(g8
S'\xe7\x08\xb7\xeft\x83\xf9?'
p2471
tp2472
Rp2473
ag4
(g8
S'\xaa\xab\xb1|i\t\xda?'
p2474
tp2475
Rp2476
ag4
(g8
S'\xb0<\xdaw\xee*\x03\xc0'
p2477
tp2478
Rp2479
ag4
(g8
S'\x99e\xa5\x91\x9f\xb2\xc5?'
p2480
tp2481
Rp2482
ag4
(g8
S'\xad\x02h\xf0\xdc\xa9\xf4?'
p2483
tp2484
Rp2485
ag4
(g8
S'\x96^4\x9c\xb6|\xf4\xbf'
p2486
tp2487
Rp2488
ag4
(g8
S'f)!`\xe8F\xf8?'
p2489
tp2490
Rp2491
ag4
(g8
S'\xf4\x9b.n\x10p\xb0\xbf'
p2492
tp2493
Rp2494
ag4
(g8
S'\xfe>y\xe8cG\xf2?'
p2495
tp2496
Rp2497
ag4
(g8
S'\xd5K\xc3\x80\x7f\xfd\x10@'
p2498
tp2499
Rp2500
ag4
(g8
S'[>"|\x14E\xe6?'
p2501
tp2502
Rp2503
ag4
(g8
S'\xae\x1b\xab\xf4\xe3\xa5\xc2?'
p2504
tp2505
Rp2506
ag4
(g8
S'\x1b\xe1l\x11E\xb3\xd2?'
p2507
tp2508
Rp2509
ag4
(g8
S'\xe4C_\xd8\xb6\x1f\xe0?'
p2510
tp2511
Rp2512
ag4
(g8
S'\xd9\x00\xfe\x08\xc8\x90\xd2?'
p2513
tp2514
Rp2515
ag4
(g8
S'\x1c!Z\xcb\x9d?\xfb?'
p2516
tp2517
Rp2518
ag4
(g8
S'\x88\xe4\xa36\xa0\xa3\xe0\xbf'
p2519
tp2520
Rp2521
ag4
(g8
S'\x02\xacq\xae\x8a,\xe8?'
p2522
tp2523
Rp2524
ag4
(g8
S'xgb\xa5Q\xcf\xc9\xbf'
p2525
tp2526
Rp2527
ag4
(g8
S'@T\x16\xcb4\xb0\x00@'
p2528
tp2529
Rp2530
ag4
(g8
S'e\xd8\x83\x95\xbe\xd2\xee?'
p2531
tp2532
Rp2533
ag4
(g8
S'\xf1\x8a~\x1c\xdb\xfb\xf7?'
p2534
tp2535
Rp2536
ag4
(g8
S'!\xb0_\x08\xb0$\xe3?'
p2537
tp2538
Rp2539
ag4
(g8
S'\xb1b\xdd\n;v\xcc?'
p2540
tp2541
Rp2542
ag4
(g8
S'w7\xa8\x81\xe9\xb7\xf9?'
p2543
tp2544
Rp2545
ag4
(g8
S'L\xe8\xb3*\x90\xa4\xf8?'
p2546
tp2547
Rp2548
ag4
(g8
S'0\t\xf6-\xbe5\xd9\xbf'
p2549
tp2550
Rp2551
ag4
(g8
S'X\tNq(\x92\xfb?'
p2552
tp2553
Rp2554
ag4
(g8
S'y\xda\x0e\xb7#\x04\xe7?'
p2555
tp2556
Rp2557
ag4
(g8
S'\xf5\xbc\xd1(\xa8\x9c\x00@'
p2558
tp2559
Rp2560
ag4
(g8
S's8\x83\x16&C\xf2?'
p2561
tp2562
Rp2563
ag4
(g8
S'\x81E\xed01\x7f\xf1?'
p2564
tp2565
Rp2566
ag4
(g8
S'\x04\xdd\x97\x17\xcfe\x82\xbf'
p2567
tp2568
Rp2569
ag4
(g8
S'<\x88\x1c\x8c\xe9\xe7\xe5?'
p2570
tp2571
Rp2572
ag4
(g8
S'\xfb\xe0\xec\xb8k\xf0\xe8?'
p2573
tp2574
Rp2575
ag4
(g8
S"R\x1d\x11\x9c}'\x95?"
p2576
tp2577
Rp2578
ag4
(g8
S'+\n\x89\xc4?\x92\x97?'
p2579
tp2580
Rp2581
ag4
(g8
S'-\x0ed\x8b\xc4l\xd4?'
p2582
tp2583
Rp2584
ag4
(g8
S'Y\xd13\xe1\x87\x1e\xe7?'
p2585
tp2586
Rp2587
ag4
(g8
S'(\xed\xf1\xa9G-\xeb?'
p2588
tp2589
Rp2590
ag4
(g8
S'\xb4_3eNR\xf0?'
p2591
tp2592
Rp2593
ag4
(g8
S'j6\x8ey\x0cu\xf6?'
p2594
tp2595
Rp2596
ag4
(g8
S'\xd2\x8d\xc1S\xa9\xdb\xc0?'
p2597
tp2598
Rp2599
ag4
(g8
S':\x01\xfc\xcel\x99\xf5?'
p2600
tp2601
Rp2602
ag4
(g8
S'J\x04x\xdc\x88\xdb\xcb?'
p2603
tp2604
Rp2605
ag4
(g8
S'\xeb\xf1g\xb0\xdcK\xee?'
p2606
tp2607
Rp2608
ag4
(g8
S'\xf7o9(@M\xcf?'
p2609
tp2610
Rp2611
ag4
(g8
S'\x1dZ\xa2\xb9s\x83\x83?'
p2612
tp2613
Rp2614
ag4
(g8
S'M\xe1e\xc3\xc4\xa8\xb0?'
p2615
tp2616
Rp2617
ag4
(g8
S'\xb6\xebw\xda}p\xd4?'
p2618
tp2619
Rp2620
ag4
(g8
S'\x8b\x10p`\xbbi\xcb\xbf'
p2621
tp2622
Rp2623
ag4
(g8
S'\xf2\x066\x7f\xfd\t\xe7?'
p2624
tp2625
Rp2626
ag4
(g8
S'\x84\x18f\xe8\ry\x02\xc0'
p2627
tp2628
Rp2629
ag4
(g8
S'\xe4{6\xb6D{\x00@'
p2630
tp2631
Rp2632
ag4
(g8
S'<\xcf\xad\xdb\xb7n\xea\xbf'
p2633
tp2634
Rp2635
ag4
(g8
S'u\xe5\xe5\xfb\xe5\xbc\xbc?'
p2636
tp2637
Rp2638
ag4
(g8
S'.\xdf/\xa3\xf2\xf2\xcd?'
p2639
tp2640
Rp2641
ag4
(g8
S'I#\xa3\xec\x1f\xe5\xd0?'
p2642
tp2643
Rp2644
ag4
(g8
S'.-p\rHR\xfc?'
p2645
tp2646
Rp2647
ag4
(g8
S'-\xb5\xa1\x83\n\xe8\xfe?'
p2648
tp2649
Rp2650
ag4
(g8
S'\xc7\xde\x8a\x9a(\x1c\xf0?'
p2651
tp2652
Rp2653
ag4
(g8
S'\x9e\x06%|\xb2\xb2\xdc?'
p2654
tp2655
Rp2656
ag4
(g8
S'\x15%\x9c\xdc7\xde\xc0?'
p2657
tp2658
Rp2659
ag4
(g8
S'\xec\x81(,\x0e\xba\xf6?'
p2660
tp2661
Rp2662
ag4
(g8
S'\xf23[\x89\x81\xb6\x04@'
p2663
tp2664
Rp2665
ag4
(g8
S'6U\xc4\xca\x10\xf7\xa8\xbf'
p2666
tp2667
Rp2668
ag4
(g8
S']\xb5\x8d\x7f\xdc%\xe7?'
p2669
tp2670
Rp2671
ag4
(g8
S'9\x84C\x19\xdf\xbc\xbb\xbf'
p2672
tp2673
Rp2674
ag4
(g8
S'\xef\x17\xec\xd1\xd8\x14\x03\xc0'
p2675
tp2676
Rp2677
ag4
(g8
S'\xc8["\xb58\xf3\xfa?'
p2678
tp2679
Rp2680
ag4
(g8
S'\xa6N\xb6\xb8h1\x04@'
p2681
tp2682
Rp2683
ag4
(g8
S'\x7f\x8f\xd9\xeb\x17\xba\xc0?'
p2684
tp2685
Rp2686
ag4
(g8
S'}\xf0oh\xee\xf2\xaf?'
p2687
tp2688
Rp2689
ag4
(g8
S'y\x81\xd8\x02\xba\x90\xfd?'
p2690
tp2691
Rp2692
ag4
(g8
S'*\x9c\x94\xcd\x05\xb1\xeb?'
p2693
tp2694
Rp2695
ag4
(g8
S'\x9f\x13\x9e\x92$\xf7\xdc?'
p2696
tp2697
Rp2698
ag4
(g8
S'\x83\xff\x1d\xc0\xfdv\xe4?'
p2699
tp2700
Rp2701
ag4
(g8
S'\xfa%I\xc8o\xf1\xeb?'
p2702
tp2703
Rp2704
ag4
(g8
S'.1"\x00\xa5E\x04@'
p2705
tp2706
Rp2707
ag4
(g8
S'\x8f7E\xdeK\xc9\xeb?'
p2708
tp2709
Rp2710
ag4
(g8
S'\x184l\xb8\xf4k\xe8?'
p2711
tp2712
Rp2713
ag4
(g8
S'\xdf\xbc\xae\x86\r)\xdc?'
p2714
tp2715
Rp2716
ag4
(g8
S'zv\xb4I\xbc\xf4\xf5?'
p2717
tp2718
Rp2719
ag4
(g8
S'h\xcba\xe8\xb4\x1a\xd9?'
p2720
tp2721
Rp2722
ag4
(g8
S'\x1a\xe0\xadi\x01\xbd\xe8?'
p2723
tp2724
Rp2725
ag4
(g8
S'\x86\xd5\x1a\xe3\x94]\xed\xbf'
p2726
tp2727
Rp2728
ag4
(g8
S'\xc2\x06\x18uT\xd6\xf9?'
p2729
tp2730
Rp2731
ag4
(g8
S'\x121\xdc8\xb8~\x06@'
p2732
tp2733
Rp2734
ag4
(g8
S'Kg\x15\x06\xb1\xad\x00@'
p2735
tp2736
Rp2737
ag4
(g8
S'\xfc\r\xb4\xd1\x93J\xe1?'
p2738
tp2739
Rp2740
ag4
(g8
S'^\x08IL~\\\xd3?'
p2741
tp2742
Rp2743
ag4
(g8
S'\xb9\x9d\x83\x0e3.\xaa?'
p2744
tp2745
Rp2746
ag4
(g8
S'\xf7G!\xd6v\x89\x04@'
p2747
tp2748
Rp2749
ag4
(g8
S'\xb6Y\x07hqx\x04@'
p2750
tp2751
Rp2752
ag4
(g8
S'\x91`L\x14\x12\xd8\x01@'
p2753
tp2754
Rp2755
ag4
(g8
S'\x94\xc6\x97\xf4{\n\xc7?'
p2756
tp2757
Rp2758
ag4
(g8
S'\xb8\xe5\xf1\x07\xca\xb2\xd7?'
p2759
tp2760
Rp2761
ag4
(g8
S"_\xfbt\xdd'\xa3\xfc?"
p2762
tp2763
Rp2764
ag4
(g8
S'\x8e\x7f\x03u\x94b\xd6?'
p2765
tp2766
Rp2767
ag4
(g8
S'\x18\x8c\xa6\x01SH\xd2?'
p2768
tp2769
Rp2770
ag4
(g8
S'~\xb4p\xb2\xe1s\xf0?'
p2771
tp2772
Rp2773
ag4
(g8
S"'\x03\xe9\xb3\x99\x1b\xf3?"
p2774
tp2775
Rp2776
ag4
(g8
S'\xfb\xdc\\\x8c\xe8\xe2\xd7\xbf'
p2777
tp2778
Rp2779
ag4
(g8
S'Ghdb\x9c\x0b\xfd?'
p2780
tp2781
Rp2782
ag4
(g8
S'\x84\x1c<\xa75\x86\xd6\xbf'
p2783
tp2784
Rp2785
ag4
(g8
S'|g\xce\xe4\xc8*\xfa?'
p2786
tp2787
Rp2788
ag4
(g8
S'\x13t\xa9;\xfd\x9e\xe5?'
p2789
tp2790
Rp2791
ag4
(g8
S'\xf7\xaf.\x9d\xa1x\xb0?'
p2792
tp2793
Rp2794
ag4
(g8
S'\xc8\x99\xb2~JO\x00@'
p2795
tp2796
Rp2797
ag4
(g8
S'\x19\xa8+\xe4;1\xe4?'
p2798
tp2799
Rp2800
ag4
(g8
S'\x1b\xb24\x8fu\xd5\xf6?'
p2801
tp2802
Rp2803
ag4
(g8
S'\xa3\x8e\xa8\xc2\xa9\x83\xf5?'
p2804
tp2805
Rp2806
ag4
(g8
S'\x84s\xa4\x94\xaeF\xf4?'
p2807
tp2808
Rp2809
ag4
(g8
S'9>rX\xf1\xbc\xe3?'
p2810
tp2811
Rp2812
ag4
(g8
S'9\xa2\xa5\x93\xa1\xdb\xe4?'
p2813
tp2814
Rp2815
ag4
(g8
S'\x1e\x00\xb9{d\xd8\x00@'
p2816
tp2817
Rp2818
ag4
(g8
S'\xe0;\xe8\xe4\xe7\xae\xd3\xbf'
p2819
tp2820
Rp2821
ag4
(g8
S'\x9a\xcc\xe4Zf\x93\x02@'
p2822
tp2823
Rp2824
ag4
(g8
S'$k\xaf6\xf9\x14\xf1?'
p2825
tp2826
Rp2827
ag4
(g8
S'\x91\x1d#\x9c\xf3\x91\xab\xbf'
p2828
tp2829
Rp2830
ag4
(g8
S'>\x1e\xc6U]\xb8\xf4?'
p2831
tp2832
Rp2833
ag4
(g8
S'=~,\x10\x1f\xc4\x00@'
p2834
tp2835
Rp2836
ag4
(g8
S'\xa0\xf6\xe6\x83\x7fd\xd0?'
p2837
tp2838
Rp2839
ag4
(g8
S'\x8e\xafIT_V\xd1?'
p2840
tp2841
Rp2842
ag4
(g8
S'\xc62\xfb\x07\xab7\xeb?'
p2843
tp2844
Rp2845
ag4
(g8
S'\xe4\x1d\xb69\x83\x06\xe6?'
p2846
tp2847
Rp2848
ag4
(g8
S'e\xd6k\x02\x16d\xee\xbf'
p2849
tp2850
Rp2851
ag4
(g8
S'\x14 ~\x10(\xac\xca?'
p2852
tp2853
Rp2854
ag4
(g8
S'\xc0\xc3F\xbb*C\xf0?'
p2855
tp2856
Rp2857
ag4
(g8
S'2B\xdd\x01\x0f@\x01@'
p2858
tp2859
Rp2860
ag4
(g8
S'\x05\xb2M\xc55m\x00\xc0'
p2861
tp2862
Rp2863
ag4
(g8
S'b\xb2\xde\xd04?\xf0?'
p2864
tp2865
Rp2866
ag4
(g8
S'\n\x06kx\x91\x1b\xf1?'
p2867
tp2868
Rp2869
ag4
(g8
S'[\xcb\x84\x8a\x95\xf3\xc6?'
p2870
tp2871
Rp2872
ag4
(g8
S'\x12\xcdUN\xc8\x12\xfa?'
p2873
tp2874
Rp2875
ag4
(g8
S'\xdc\xc6\xa6\xd8\xd9\xd4\x07@'
p2876
tp2877
Rp2878
ag4
(g8
S'y4@\xc9\xd7\x8d\xfb?'
p2879
tp2880
Rp2881
ag4
(g8
S'\xc7\xbd\x10m\x16\xa7\x02@'
p2882
tp2883
Rp2884
ag4
(g8
S'\xdb\xf9\x00\xfcr\xa4\x01@'
p2885
tp2886
Rp2887
ag4
(g8
S'<\x04\xa7\x06_\xc1\xec?'
p2888
tp2889
Rp2890
ag4
(g8
S'.\xc5\xd5v.m\xd8?'
p2891
tp2892
Rp2893
ag4
(g8
S'\xcdndq\xa1\x08\x04@'
p2894
tp2895
Rp2896
ag4
(g8
S'\xb0\x10\x07\x0bY\xd4\xf9?'
p2897
tp2898
Rp2899
ag4
(g8
S'\xfa\xb9\xcd\x9c\x07P\x94\xbf'
p2900
tp2901
Rp2902
ag4
(g8
S'\xd2C\x93\x87\x98)\xf2?'
p2903
tp2904
Rp2905
ag4
(g8
S'\xcfb\x80\x15i\xed\xde\xbf'
p2906
tp2907
Rp2908
ag4
(g8
S'%iz +C\xfa?'
p2909
tp2910
Rp2911
ag4
(g8
S'\x05\x10h\xe2\x0e\x9e\xf8?'
p2912
tp2913
Rp2914
ag4
(g8
S'\t\x0f\xe01{\xac\xde?'
p2915
tp2916
Rp2917
ag4
(g8
S'\x13/s\xf2\xf8\x96\xca?'
p2918
tp2919
Rp2920
ag4
(g8
S'D\xed\x0f\xcdSm\xf0?'
p2921
tp2922
Rp2923
ag4
(g8
S'\xd1\xc8\xf8\xc23(\xa0?'
p2924
tp2925
Rp2926
ag4
(g8
S'\xbep\x95\xcb\xdes\xf5?'
p2927
tp2928
Rp2929
ag4
(g8
S'\xb24\x1a\x086B\xe3?'
p2930
tp2931
Rp2932
ag4
(g8
S'\xa4\x89\x90\x93\tz\xc2\xbf'
p2933
tp2934
Rp2935
ag4
(g8
S'\xdb\x82\xbf\xbf\x8c\xe5\xf5\xbf'
p2936
tp2937
Rp2938
ag4
(g8
S'\xa1\x90\xac=U\x06\x05@'
p2939
tp2940
Rp2941
ag4
(g8
S'5\xf7\xb2o\x10\xf9\xf1?'
p2942
tp2943
Rp2944
ag4
(g8
S'\xa5\xedu\xf9{\xb8\xe7?'
p2945
tp2946
Rp2947
ag4
(g8
S'\xff\x1e\xe5\xf9\xf2\xd2\xdc?'
p2948
tp2949
Rp2950
ag4
(g8
S'\xeae\x91\xc5o\xc8\xec?'
p2951
tp2952
Rp2953
ag4
(g8
S'\xa0\xb0\xb7\xe0"0\x07@'
p2954
tp2955
Rp2956
ag4
(g8
S')\x86\x15\xe7%\xd6\xf1?'
p2957
tp2958
Rp2959
ag4
(g8
S'\xea]\xfd\x81{\xb1\xec?'
p2960
tp2961
Rp2962
ag4
(g8
S'\x01\xd2B\x85\x14\xae\xe9?'
p2963
tp2964
Rp2965
ag4
(g8
S'\xf4\x07\xac\x9b\xe3\xce\xfb?'
p2966
tp2967
Rp2968
ag4
(g8
S'\x1a\xd6\xb5\x03\xd9"\xaa?'
p2969
tp2970
Rp2971
ag4
(g8
S'p\xb9y-\xec\xb1\xec?'
p2972
tp2973
Rp2974
ag4
(g8
S'Zd\xb4\x148U\xf0\xbf'
p2975
tp2976
Rp2977
ag4
(g8
S'\x03\x104\xb7!\x94\xd9?'
p2978
tp2979
Rp2980
ag4
(g8
S'[_\xe8B\x03\xb5R?'
p2981
tp2982
Rp2983
ag4
(g8
S'\x97\x03Q\xe1a\xef\xfb?'
p2984
tp2985
Rp2986
ag4
(g8
S'\xff\x84:)\xd3\x8e\xf4?'
p2987
tp2988
Rp2989
ag4
(g8
S'\x01\xe3\x13\t\xeeZ\xf1?'
p2990
tp2991
Rp2992
ag4
(g8
S'\x1d\x07\xe59\xa5\xd5\xf8?'
p2993
tp2994
Rp2995
ag4
(g8
S'\x97\xfd\xf1\xbaV\x82\xf5?'
p2996
tp2997
Rp2998
ag4
(g8
S'\xe5\xf7\xc1\xf0[\xb7\r@'
p2999
tp3000
Rp3001
ag4
(g8
S'<\xbd\x11i\xebv\xb8\xbf'
p3002
tp3003
Rp3004
ag4
(g8
S'\xaa\x150+\xe6<\xd6?'
p3005
tp3006
Rp3007
ag4
(g8
S'\xc3a\x02\x90!\xf1\xf2\xbf'
p3008
tp3009
Rp3010
a(lp3011
F0.011904761904761904
aF0.6574367098607595
aF0.018987343772151898
aF0.038834954456310675
aF0.0063291179240506324
aF0.037974688544303796
aF0.06329114524050633
aF0.02531646269620253
aF0.04430380546835443
aF0.019417484728155337
aF0.04430380746835443
aF1.1000000000000001e-08
aF0.012658239848101266
aF0.0189873547721519
aF0.034482772620689654
aF1.5000000000000002e-08
aF1.6e-08
aF0.07738096938095239
aF1.8000000000000002e-08
aF0.07142859042857143
aF2e-08
aF0.06329116024050634
aF2.2000000000000002e-08
aF2.3e-08
aF2.4000000000000003e-08
aF0.012658252848101266
aF0.04430382346835443
aF0.02531648269620253
aF0.012658255848101265
aF0.005952409952380952
aF0.005952410952380952
aF0.06329117024050633
aF0.011904793904761905
aF0.023809556809523808
aF3.4e-08
aF0.005952415952380952
aF3.6000000000000005e-08
aF0.04430383446835443
aF0.02380956180952381
aF3.9000000000000005e-08
aF0.02531649569620253
aF0.017857183857142855
aF4.2000000000000006e-08
aF4.3e-08
aF0.005952424952380952
aF0.3459916061814346
aF0.17857147457142855
aF4.7000000000000004e-08
aF4.8000000000000006e-08
aF4.9e-08
aF5.0000000000000004e-08
aF0.0189873927721519
aF0.05357148057142857
aF0.05357148157142857
aF5.4e-08
aF0.0949367638607595
aF0.011904817904761904
aF0.0189873987721519
aF0.005952438952380952
aF0.011904820904761904
aF0.005952440952380952
aF0.02531651669620253
aF0.005952442952380952
aF0.02380958680952381
aF0.22531651969620253
aF0.6483517133516483
aF0.006329179924050633
aF0.011904828904761904
aF0.26785721085714287
aF6.900000000000001e-08
aF7e-08
aF7.1e-08
aF0.03164564162025316
aF0.07142864442857143
aF7.4e-08
aF0.07738102738095239
aF7.6e-08
aF0.03571436271428571
aF0.2689874197721519
aF0.2238096028095238
aF0.0059524609523809524
aF0.011904842904761905
aF0.006329195924050633
aF0.1574367918607595
aF0.6483517323516482
aF8.500000000000001e-08
aF0.02531654169620253
aF8.700000000000001e-08
aF0.05357151657142857
aF8.9e-08
aF9.000000000000001e-08
aF0.041666757666666665
aF0.012658319848101266
aF0.012658320848101265
aF0.031645663620253166
aF9.5e-08
aF9.600000000000001e-08
aF0.017857239857142857
aF9.8e-08
aF9.9e-08
aF0.005952480952380952
aF1.01e-07
aF0.0949368108607595
aF0.0189874447721519
aF0.5532701461940928
aF0.03164567462025317
aF0.0063292199240506325
aF0.011904868904761903
aF0.023809631809523807
aF3.2199368178607597
aF0.02380963380952381
aF0.0949368198607595
aF0.04430390946835443
aF0.005952493952380952
aF0.16930391146835444
aF0.22380963880952381
aF1.16e-07
aF3.1574368258607595
aF0.041666784666666665
aF1.1900000000000001e-07
aF1.2000000000000002e-07
aF1.21e-07
aF0.005952502952380952
aF0.037974806544303796
aF0.07142869542857143
aF0.04430392246835443
aF0.18083195240144664
aF1.27e-07
aF0.5532701701940929
aF3.258649918029536
aF0.006329243924050633
aF0.16930392846835443
aF0.006329245924050633
aF0.1574368418607595
aF0.017857276857142855
aF0.04430393246835443
aF1.36e-07
aF1.37e-07
aF0.07738109038095238
aF1.3900000000000001e-07
aF1.4e-07
aF0.018987482772151898
aF0.005952522952380952
aF1.43e-07
aF0.0379748275443038
aF0.03571443071428571
aF0.06329128524050634
aF1.47e-07
aF0.011904909904761904
aF0.005952529952380952
aF0.07738110238095239
aF0.017857293857142856
aF0.0189874937721519
aF0.012658380848101265
aF1.54e-07
aF0.0379748385443038
aF0.02380967980952381
aF0.011904918904761905
aF1.58e-07
aF0.005952539952380952
aF0.29430395746835447
aF0.07142873242857142
aF0.005952542952380952
aF0.3459917241814346
aF3.1983124002869197
aF0.03164573462025317
aF1.66e-07
aF0.023809690809523807
aF0.012658395848101266
aF0.02380969280952381
aF0.6483518183516482
aF1.71e-07
aF0.012658399848101265
aF1.73e-07
aF0.011904935904761904
aF0.04430397246835443
aF0.0949368848607595
aF0.2689875187721519
aF0.011904939904761904
aF0.017857321857142856
aF0.005952560952380952
aF0.011904942904761904
aF0.5532702241940928
aF1.83e-07
aF1.84e-07
aF0.005952565952380952
aF1.8600000000000002e-07
aF0.012658414848101266
aF1.8800000000000002e-07
aF0.14880971280952382
aF0.011904951904761905
aF1.91e-07
aF0.017857334857142856
aF0.023809716809523807
aF0.02531664969620253
aF0.012658422848101265
aF0.005952576952380952
aF0.0059525779523809524
aF0.023809721809523808
aF0.0949369078607595
aF0.15420043014959725
aF0.017857343857142854
aF2.02e-07
aF0.017857345857142857
aF0.006329317924050633
aF0.012658432848101265
aF0.023809729809523807
aF0.3452383022380952
aF0.011904969904761904
aF0.0379748925443038
aF0.011904971904761905
aF0.4253166666962026
aF2.1200000000000002e-07
aF0.023809736809523807
aF2.14e-07
aF0.07738116738095238
aF0.006329329924050633
aF0.0189875587721519
aF0.18083204440144665
aF0.07142879042857142
aF0.2689875617721519
aF0.025316676696202533
aF0.017857364857142857
aF0.0063293369240506325
aF0.07738117638095238
aF0.011904986904761904
aF0.0379749095443038
aF2.27e-07
aF2.28e-07
aF0.012658456848101265
aF0.006329343924050633
aF2.3100000000000002e-07
aF0.0379749155443038
aF0.011904994904761905
aF0.15357166257142857
aF0.0949369438607595
aF2.3600000000000002e-07
aF0.005952617952380952
aF0.011904999904761904
aF0.011905000904761905
aF0.1574369488607595
aF0.07738119338095238
aF0.02380976580952381
aF0.012658470848101266
aF2.44e-07
aF0.02531670069620253
aF0.017857388857142855
aF0.0379749305443038
aF0.07738120038095238
aF0.02380977280952381
aF2.5000000000000004e-07
aF0.017857393857142856
aF0.023809775809523807
aF0.017857395857142855
aF2.54e-07
aF0.0189875967721519
aF0.03571454171428571
aF0.017857399857142856
aF0.07142882942857143
aF0.012658486848101266
aF0.011905021904761904
aF0.012658488848101265
aF0.1488097858095238
aF0.29430406046835444
aF0.5059526449523809
aF0.011905026904761903
aF0.07142883742857142
aF0.1574369758607595
aF0.006329381924050633
aF2.6900000000000004e-07
aF0.29430406746835447
aF0.023809794809523808
aF0.04430406946835443
aF0.03164584262025317
aF0.005952654952380952
aF0.06329141424050633
aF2.7600000000000004e-07
aF3.0324369858607594
aF0.07738123038095239
aF2.79e-07
aF0.0949369888607595
aF0.0189876227721519
aF0.005952662952380952
aF0.012658510848101266
aF0.886603659527426
aF0.16930408246835443
aF2.86e-07
aF2.87e-07
aF2.8800000000000004e-07
aF0.02380981280952381
aF2.9000000000000003e-07
aF0.005952671952380952
aF0.07142886342857142
aF0.017857435857142855
aF0.025316749696202533
aF0.006329408924050633
aF2.96e-07
aF0.22380982080952383
aF2.98e-07
aF2.99e-07
aF0.005952680952380952
aF3.01e-07
aF0.02380982580952381
aF0.15420053314959725
aF0.03571458971428571
aF0.07142887642857143
aF3.06e-07
aF0.012658534848101265
aF0.0949370168607595
aF0.0059526899523809525
aF0.005952690952380952
aF0.0379749945443038
aF0.04430410946835443
aF0.005952693952380952
aF3.1400000000000003e-07
aF0.005952695952380952
aF0.18083214240144665
aF0.005952697952380952
aF0.012658545848101265
aF0.023809842809523807
aF0.07738127238095238
aF3.2100000000000003e-07
aF3.22e-07
aF0.044304120468354434
aF0.04166699066666667
aF0.011905086904761905
aF0.005952706952380952
aF0.02380985080952381
aF3.28e-07
aF3.29e-07
aF0.023809853809523808
aF0.005952711952380952
aF0.18083215840144665
aF3.3300000000000003e-07
aF0.006329447924050633
aF0.07142890642857143
aF0.02380985980952381
aF0.023809860809523808
aF0.07738129038095239
aF3.39e-07
aF3.4000000000000003e-07
aF0.005952721952380952
aF3.42e-07
aF0.012658570848101265
aF0.011905105904761903
aF0.0379750285443038
aF0.14880986980952382
aF0.017857489857142857
aF0.012658575848101266
aF0.2689876907721519
aF0.07142892142857142
aF0.005952731952380952
aF0.006329465924050633
aF0.02380987680952381
aF0.012658581848101265
aF0.02380987880952381
aF3.56e-07
aF0.011905118904761904
aF0.02531681369620253
aF0.07142893042857143
aF0.2199370688607595
aF0.07142893242857143
aF3.6200000000000004e-07
aF3.63e-07
aF0.02531681969620253
aF3.65e-07
aF0.005952746952380952
aF0.025316822696202532
aF3.68e-07
aF0.017857511857142856
aF0.6483520183516482
aF3.7100000000000003e-07
aF0.18083219840144665
aF0.0379750565443038
aF0.5063294879240506
aF0.07738132738095238
aF0.18083220240144665
aF0.26785751985714285
aF4.219937086860759
aF3.7900000000000005e-07
aF0.035714665714285714
aF0.0379750645443038
aF3.82e-07
aF0.023809906809523808
aF0.22531683969620253
aF0.03571467071428571
aF0.005952766952380952
aF0.18083221340144665
aF0.005952768952380952
aF0.017857531857142856
aF0.011905151904761904
aF0.1983126272869198
aF0.005952772952380952
aF0.017857535857142857
aF0.0949371028607595
aF0.0379750785443038
aF0.011905157904761904
aF0.07142896842857142
aF3.9800000000000004e-07
aF3.99e-07
aF0.0949371088607595
aF0.025316856696202532
aF4.02e-07
aF0.023809926809523808
aF0.14880992780952382
aF0.07142897642857142
aF0.07738135838095238
aF0.017857549857142857
aF0.07738136038095238
aF0.0379750925443038
aF4.1000000000000004e-07
aF4.11e-07
aF0.07142898342857143
aF0.07738136538095239
aF0.07142898542857143
aF0.005952795952380952
aF4.16e-07
aF0.07738136938095239
aF0.005952798952380952
aF4.1900000000000003e-07
aF0.005952800952380952
aF0.2824371298607595
aF4.2200000000000005e-07
aF0.023809946809523808
aF0.012658651848101266
aF0.0379751085443038
aF0.1488099498095238
aF0.02380995080952381
aF0.02531688369620253
aF0.012658656848101265
aF0.011905191904761903
aF4.3100000000000003e-07
aF4.32e-07
aF4.33e-07
aF4.3400000000000005e-07
aF0.005952815952380952
aF0.1574371448607595
aF0.0379751205443038
aF0.005952818952380952
aF0.03571472471428571
aF0.025316895696202532
aF0.0189877827721519
aF0.005952822952380952
aF0.017857585857142855
aF0.07738139638095239
aF0.025316900696202533
aF0.02380996980952381
aF4.47e-07
aF0.005952828952380952
aF4.49e-07
aF0.07142902142857142
aF4.51e-07
aF0.22380997580952383
aF0.0949371618607595
aF0.14835210235164836
aF0.02531691069620253
aF4.56e-07
aF0.0379751405443038
aF4.5800000000000005e-07
aF4.59e-07
aF0.04430425746835443
aF4.61e-07
aF0.011905223904761904
aF0.012658690848101265
aF0.005952844952380952
aF4.6500000000000005e-07
aF4.66e-07
aF4.6700000000000004e-07
aF0.017857610857142856
aF0.005952849952380952
aF0.06329160924050634
aF0.005952851952380952
aF0.025316927696202533
aF0.0379751565443038
aF0.04430427146835443
aF4.75e-07
aF0.017857618857142855
aF4.77e-07
aF0.02381000180952381
aF0.3459920401814346
aF0.07738143238095238
aF0.037975164544303795
aF0.07738143438095238
aF0.012658710848101266
aF0.07142905542857142
aF0.005952865952380952
aF0.2689878277721519
aF0.18083231340144665
aF4.88e-07
aF0.023810012809523808
aF0.07738144238095239
aF4.91e-07
aF0.6488100158095237
aF0.1488100168095238
aF4.940000000000001e-07
aF0.011905256904761904
aF0.011905257904761903
aF4.970000000000001e-07
aF4.2199372068607595
aF4.99e-07
aF5.000000000000001e-07
aF0.041667167666666664
aF0.02531695769620253
aF0.07142907442857142
aF0.012658731848101266
aF0.26785764785714283
aF0.017857648857142857
aF0.037975190544303795
aF0.023810031809523808
aF5.09e-07
aF5.1e-07
aF5.110000000000001e-07
aF5.12e-07
aF0.005952893952380952
aF0.006329627924050633
aF0.023810038809523808
aF5.16e-07
aF5.17e-07
aF0.1574372268607595
aF5.19e-07
aF0.22381004380952382
aF0.07738147338095239
aF0.017857664857142855
aF0.18083234940144666
aF0.02531697969620253
aF5.250000000000001e-07
aF5.26e-07
aF5.27e-07
aF0.07738148038095238
aF0.07142910042857142
aF5.3e-07
aF0.0949372398607595
aF0.02381005580952381
aF0.04166719966666666
aF0.0949372428607595
aF0.34523863023809526
aF5.36e-07
aF5.37e-07
aF0.012658765848101265
aF0.1574372478607595
aF0.18083236640144665
aF3.2199372498607595
aF0.07738149438095239
aF5.43e-07
aF0.012658771848101266
aF0.2689878867721519
aF0.0949372548607595
aF0.017857689857142856
aF0.07142911942857143
aF0.07738150138095239
aF0.005952930952380952
aF5.51e-07
aF0.005952932952380952
aF0.26785769585714286
aF0.023810077809523808
aF0.023810078809523808
aF0.012658783848101266
aF0.02381008080952381
aF0.42531701369620256
aF5.590000000000001e-07
aF0.1574372688607595
aF0.0379752445443038
aF0.6488100858095237
aF0.02531701869620253
aF0.0949372728607595
aF5.65e-07
aF0.07738151838095238
aF0.3459921281814346
aF0.023810091809523808
aF0.011905330904761905
aF0.017857712857142855
aF0.017857713857142857
aF0.42531702769620255
aF5.730000000000001e-07
aF0.07738152638095239
aF0.16930437246835445
aF0.18083240240144666
aF0.0949372858607595
aF5.78e-07
aF0.017857721857142857
aF5.800000000000001e-07
aF0.005952961952380952
aF0.023810105809523807
aF0.1488101068095238
aF0.011905345904761904
aF0.005952965952380952
aF0.02381010980952381
aF0.02531704269620253
aF0.0949372968607595
aF0.0949372978607595
aF5.900000000000001e-07
aF0.2199372998607595
aF0.6574373008607596
aF0.005952973952380952
aF0.017857736857142856
aF5.95e-07
aF0.0949373048607595
aF0.0949373058607595
aF5.98e-07
aF0.02381012280952381
aF0.0379752835443038
aF6.01e-07
aF0.012658829848101266
aF6.03e-07
aF0.07738155638095238
aF6.05e-07
aF0.012658833848101266
aF6.070000000000001e-07
aF0.02531706369620253
aF0.14881013280952382
aF0.0949373188607595
aF0.005952991952380952
aF0.0189879537721519
aF0.011905374904761904
aF0.0949373228607595
aF0.017857757857142855
aF0.006329729924050633
aF0.005952997952380952
aF0.07142918942857142
aF6.19e-07
aF6.2e-07
aF0.005953001952380952
aF0.023810145809523807
aF0.025317078696202533
aF0.07738157638095239
aF0.0949373338607595
aF0.017857768857142856
aF0.011905388904761904
aF0.07738158038095239
aF0.2678577718571428
aF0.02381015380952381
aF0.012658858848101265
aF3.0324373408607594
aF0.005953013952380952
aF0.02531708969620253
aF0.011905396904761905
aF6.36e-07
aF6.37e-07
aF0.02381016180952381
aF6.39e-07
aF0.1574373488607595
aF3.19831287728692
aF0.1574373508607595
aF0.5532706851940928
aF6.44e-07
aF6.450000000000001e-07
aF0.017857788857142856
aF0.0189879887721519
aF6.480000000000001e-07
aF6.490000000000001e-07
aF0.0189879917721519
aF6.51e-07
aF0.017857794857142856
aF0.26785779585714287
aF6.54e-07
aF0.26785779785714287
aF6.56e-07
aF0.006329770924050633
aF0.06329179724050633
aF3.0324373678607595
aF0.023810183809523808
aF0.22381018480952383
aF0.22381018580952383
aF0.07738161538095238
aF0.011905425904761903
aF6.650000000000001e-07
aF3.053270708194093
aF0.005953047952380952
aF0.018988009772151898
aF0.012658896848101266
aF0.02381019380952381
aF0.017857813857142857
aF6.720000000000001e-07
aF0.03571495871428571
aF0.14881019780952381
aF0.04430447246835443
aF0.0949373848607595
aF0.1488102008095238
aF0.02381020180952381
aF0.07738163138095239
aF6.800000000000001e-07
aF0.5063297949240506
aF6.82e-07
aF0.07738163538095238
aF0.011905445904761905
aF0.011905446904761904
aF6.860000000000001e-07
aF0.023810210809523807
aF0.023810211809523807
aF0.505953069952381
aF0.005953070952380952
aF0.005953071952380952
aF6.92e-07
aF0.023810216809523808
aF0.006329807924050633
aF0.07738164738095238
aF6.960000000000001e-07
aF6.970000000000001e-07
aF0.1574374068607595
aF6.99e-07
aF7.000000000000001e-07
aF0.07738165338095239
aF0.07738165438095239
aF0.005953083952380952
aF0.012658931848101266
aF0.006329818924050633
aF7.06e-07
aF7.070000000000001e-07
aF7.08e-07
aF0.0189880507721519
aF0.1488102338095238
aF0.02531716669620253
aF0.012658939848101266
aF0.005953093952380952
aF0.07738166638095238
aF7.15e-07
aF0.0059530969523809525
aF7.170000000000001e-07
aF0.037975401544303795
aF7.19e-07
aF0.012658947848101265
aF0.07738167338095238
aF0.017857864857142858
aF0.0949374318607595
aF0.017857866857142857
aF0.023810248809523808
aF7.26e-07
aF0.017857869857142855
aF0.0949374368607595
aF0.0189880707721519
aF0.006329843924050633
aF0.02531718669620253
aF7.32e-07
aF0.17857216157142855
aF7.340000000000001e-07
aF0.07738168738095239
aF0.02381025980952381
aF0.0379754205443038
aF0.0379754215443038
aF7.39e-07
aF0.011905501904761905
aF0.005953121952380952
aF0.006329855924050633
aF0.025317198696202532
aF7.440000000000001e-07
aF0.005953125952380952
aF0.1488102698095238
aF0.0379754305443038
aF0.017857890857142854
aF0.18083257540144665
aF0.07738170238095238
aF0.0379754345443038
aF0.012658979848101265
aF0.005953133952380952
aF0.005953134952380952
aF0.07142932642857143
aF0.07738170838095239
aF7.57e-07
aF7.580000000000001e-07
aF0.0949374678607595
aF7.6e-07
aF0.02531721669620253
aF0.035715047714285714
aF0.14835241135164834
aF7.64e-07
aF0.0379754485443038
aF0.005953146952380952
aF7.67e-07
aF0.07142933942857142
aF7.690000000000001e-07
aF0.07738172238095238
aF0.22381029480952383
aF7.720000000000001e-07
aF0.023810296809523807
aF0.07738172638095238
aF7.750000000000001e-07
aF0.005953156952380952
aF0.07738172938095238
aF0.02531723369620253
aF0.011905540904761903
aF7.8e-07
aF0.0949374898607595
aF7.820000000000001e-07
aF0.005953163952380952
aF0.02381030780952381
aF0.017857927857142856
aF7.860000000000001e-07
aF0.1488103108095238
aF0.0949374968607595
aF3.1574374978607596
aF0.017857932857142857
aF7.91e-07
aF0.011905553904761904
aF0.018988134772151898
aF7.94e-07
aF0.02381031880952381
aF0.011905557904761905
aF0.07738174938095238
aF0.011905559904761904
aF0.011905560904761903
aF0.26785794285714287
aF0.005953181952380952
aF4.219937510860759
aF8.030000000000001e-07
aF0.02381032780952381
aF0.023810328809523808
aF0.07142937742857143
aF0.07738175938095239
aF0.017857950857142858
aF0.011905570904761903
aF0.2238103338095238
aF0.07738176338095239
aF0.0189881537721519
aF0.017857955857142855
aF0.07738176638095239
aF0.26785795785714284
aF8.16e-07
aF0.017857959857142856
aF8.18e-07
aF0.012659046848101266
aF0.005953200952380952
aF0.07738177338095238
aF8.22e-07
aF0.14881034680952382
aF8.240000000000001e-07
aF0.04430462246835443
aF0.005953206952380952
aF0.005953207952380952
aF8.280000000000001e-07
aF8.29e-07
aF0.22381035380952383
aF0.07142940242857143
aF0.006329945924050633
aF8.33e-07
aF0.1488103578095238
aF0.005953215952380952
aF0.0949375448607595
aF0.0189881787721519
aF0.0949375468607595
aF8.39e-07
aF8.4e-07
aF0.012659068848101265
aF0.017857984857142857
aF0.07142941442857142
aF0.005953224952380952
aF8.450000000000001e-07
aF0.0949375548607595
aF0.22531730269620254
aF0.02381037180952381
aF8.49e-07
aF0.005953230952380952
aF0.017857993857142856
aF0.07142942342857142
aF0.02531730869620253
aF8.540000000000001e-07
aF0.07142942642857142
aF0.18083268240144665
aF0.07738180938095239
aF0.023810381809523808
aF8.590000000000001e-07
aF0.012659087848101266
aF8.610000000000001e-07
aF0.0949375708607595
aF0.0189882047721519
aF0.07738181638095239
aF0.017858007857142855
aF0.07738181838095239
aF0.14835251535164834
aF0.07142943942857143
aF0.18083269540144664
aF0.0949375788607595
aF0.005953251952380952
aF8.720000000000001e-07
aF8.73e-07
aF3.0324375828607595
aF0.005953255952380952
aF8.760000000000001e-07
aF0.0949375858607595
aF8.780000000000001e-07
aF0.005953259952380952
aF0.011905641904761904
aF8.81e-07
aF0.14881040580952382
aF0.02381040680952381
aF0.005953264952380952
aF0.07142945642857143
aF0.005953266952380952
aF0.07142945842857143
aF8.88e-07
aF8.890000000000001e-07
aF0.02531734569620253
aF0.005953271952380952
aF0.07142946342857143
aF8.930000000000001e-07
aF0.017858036857142857
aF8.95e-07
aF0.017858038857142856
aF0.017858039857142856
aF8.98e-07
aF0.017858041857142855
aF0.02381042380952381
aF0.1488104248095238
aF9.02e-07
aF0.005953283952380952
aF9.04e-07
aF0.0379755885443038
aF0.012659133848101266
aF9.070000000000001e-07
aF9.08e-07
aF0.07738186138095238
aF9.100000000000001e-07
aF0.005953291952380952
aF0.005953292952380952
aF0.005953293952380952
aF9.140000000000001e-07
aF0.07738186738095239
aF0.07738186838095239
aF0.005953297952380952
aF9.18e-07
aF0.07738187138095239
aF0.011905681904761904
aF9.210000000000001e-07
aF3.053270964194093
aF0.005953303952380952
aF0.2199376328607595
aF0.02531738069620253
aF9.26e-07
aF0.07142949842857142
aF9.28e-07
aF0.017858071857142856
aF0.02531738569620253
aF0.02531738669620253
aF9.32e-07
aF0.017858075857142858
aF0.22531738969620255
aF0.19831317128691983
aF0.1574376448607595
aF0.02531739269620253
aF0.017858080857142855
aF0.07142951042857143
aF0.02381046380952381
aF3.258650730029536
aF0.0949376508607595
aF0.07738189538095239
aF9.440000000000001e-07
aF0.07738189738095239
aF0.0379756295443038
aF9.470000000000001e-07
aF0.02381047180952381
aF9.49e-07
aF0.006330063924050633
aF0.02531740669620253
aF0.018988293772151898
aF0.07142952442857142
aF9.54e-07
aF9.55e-07
aF0.012659183848101265
aF9.570000000000001e-07
aF9.58e-07
aF0.005953339952380952
aF0.011905721904761904
aF9.61e-07
aF9.62e-07
aF0.017858105857142856
aF0.017858106857142855
aF0.1574376738607595
aF9.660000000000002e-07
aF0.005953347952380952
aF0.0949376768607595
aF0.1574376778607595
aF0.023810493809523808
aF9.71e-07
aF9.72e-07
aF0.011905734904761904
aF0.0379756575443038
aF0.012659202848101266
aF9.76e-07
aF0.0949376858607595
aF0.0949376868607595
aF0.07738193138095238
aF0.26785812285714283
aF9.81e-07
aF9.82e-07
aF0.012659210848101265
aF9.84e-07
aF9.85e-07
aF0.07142955742857142
aF9.87e-07
aF0.0379756715443038
aF0.07738194138095239
aF0.012659217848101265
aF0.012659218848101266
aF0.005953372952380952
aF9.93e-07
aF9.940000000000001e-07
aF0.0189883367721519
aF9.96e-07
aF0.005953377952380952
aF9.98e-07
aF0.29430479646835445
a(lp3012
g4
(g8
S'\xfa\xd7\xd57\xc5^\xe9?'
p3013
tp3014
Rp3015
ag4
(g8
S'D\xe7&RT\x9f\xed?'
p3016
tp3017
Rp3018
ag4
(g8
S'\x94\x8e\xcd\xb8r,\xe6?'
p3019
tp3020
Rp3021
ag4
(g8
S')\xafW\x0e\x16|\xee?'
p3022
tp3023
Rp3024
ag4
(g8
S'\xb9Pl\xd60Z\xe5?'
p3025
tp3026
Rp3027
ag4
(g8
S'\x91\x96\x98O!~\xec?'
p3028
tp3029
Rp3030
ag4
(g8
S'\r8\xffv\xf3S\xeb?'
p3031
tp3032
Rp3033
ag4
(g8
S'\x81\xf2V\x95\xe4H\xea?'
p3034
tp3035
Rp3036
ag4
(g8
S'\xe1P.\x19\xfb\xe6\xf0?'
p3037
tp3038
Rp3039
ag4
(g8
S'6_\xf3\xfb\xf41\xec?'
p3040
tp3041
Rp3042
ag4
(g8
S'Fk\xfd\xfd\t7\xec?'
p3043
tp3044
Rp3045
ag4
(g8
S'\xfb\xff\x7f}hz\xe9?'
p3046
tp3047
Rp3048
ag4
(g8
S'n\xda\xd9\x87EB\xed?'
p3049
tp3050
Rp3051
ag4
(g8
S's\xa9\xd7\xb5\xdf\x07\xea?'
p3052
tp3053
Rp3054
ag4
(g8
S'\xf4q\x90\x1en\x8e\xf1?'
p3055
tp3056
Rp3057
ag4
(g8
S'0w3\xeb?x\xea?'
p3058
tp3059
Rp3060
ag4
(g8
S'\x0c\x0f\xbfm\xa81\xe7?'
p3061
tp3062
Rp3063
ag4
(g8
S'\x83\x95-s\xe9X\xfa?'
p3064
tp3065
Rp3066
ag4
(g8
S'\xd1\x0c\xce\xc7@\x84\xe7?'
p3067
tp3068
Rp3069
ag4
(g8
S',;\x19Y\xef,\x03@'
p3070
tp3071
Rp3072
ag4
(g8
S'\xc8\xdd\xcc\xb8EQ\xe9?'
p3073
tp3074
Rp3075
ag4
(g8
S'Jx\x00\r\x84\xc0\xea?'
p3076
tp3077
Rp3078
ag4
(g8
S'\xef\x941\xfd\xc61\xed?'
p3079
tp3080
Rp3081
ag4
(g8
S'_\x92\x1a<\xad\x05\xea?'
p3082
tp3083
Rp3084
ag4
(g8
S'!\x8eq\x903I\xe9?'
p3085
tp3086
Rp3087
ag4
(g8
S"(mI'n5\xf3?"
p3088
tp3089
Rp3090
ag4
(g8
S'T\xbdI\xd7\x8d\xa2\xeb?'
p3091
tp3092
Rp3093
ag4
(g8
S'\xc2\xe3\xd0,\x97\x05\xed?'
p3094
tp3095
Rp3096
ag4
(g8
S'\x05#V\x02\xc6\xc6\xf4?'
p3097
tp3098
Rp3099
ag4
(g8
S'A\xf5\x0b:\x00$\xe7?'
p3100
tp3101
Rp3102
ag4
(g8
S'R\xbd\xdcc\xc9\xa3\xe8?'
p3103
tp3104
Rp3105
ag4
(g8
S'\x10\xce\xbdf\xb7N\xf2?'
p3106
tp3107
Rp3108
ag4
(g8
S'\x19\x1c\xc9d\xcbR\xee?'
p3109
tp3110
Rp3111
ag4
(g8
S'\xa4\x8dwJ?w\xea?'
p3112
tp3113
Rp3114
ag4
(g8
S'\x87cB\xdd\xb7\x13\xf9?'
p3115
tp3116
Rp3117
ag4
(g8
S'\xe1u\x1e3\x9d\xec\xe9?'
p3118
tp3119
Rp3120
ag4
(g8
S'\xb38t\xd1D9\xe8?'
p3121
tp3122
Rp3123
ag4
(g8
S'N\xf7fa\xd8\x00\xea?'
p3124
tp3125
Rp3126
ag4
(g8
S'\x9e\x1b\x9a\x8bT)\xec?'
p3127
tp3128
Rp3129
ag4
(g8
S'\xce-`@\xda\xbc\xee?'
p3130
tp3131
Rp3132
ag4
(g8
S'\x98\xc9\xd7\x18\xe9\x9f\xee?'
p3133
tp3134
Rp3135
ag4
(g8
S'j \x1f\xa8X\x0c\xe9?'
p3136
tp3137
Rp3138
ag4
(g8
S'V\xaf^\xf9\x92$\xe8?'
p3139
tp3140
Rp3141
ag4
(g8
S'\x19\xf73pk\xf4\xec?'
p3142
tp3143
Rp3144
ag4
(g8
S'^\x03\xa2$\xd7[\xeb?'
p3145
tp3146
Rp3147
ag4
(g8
S'\xed./\xda\xd0\xdb\xeb?'
p3148
tp3149
Rp3150
ag4
(g8
S'@\t\xb8/\x84\xb9\xf0?'
p3151
tp3152
Rp3153
ag4
(g8
S'Z\xdez*\x05\x9c\xe7?'
p3154
tp3155
Rp3156
ag4
(g8
S'v!\xd0u\xae\xd2\xf1?'
p3157
tp3158
Rp3159
ag4
(g8
S'\xca\xe5\xc3\x81\x95$\xee?'
p3160
tp3161
Rp3162
ag4
(g8
S'\n\x9e\xbd\x86q>\xea?'
p3163
tp3164
Rp3165
ag4
(g8
S'\x92\xf3\xc5\x1e\x10\xd2\xea?'
p3166
tp3167
Rp3168
ag4
(g8
S'\xbd9a\xb5UK\xed?'
p3169
tp3170
Rp3171
ag4
(g8
S'_\xe0\xc9K\xe8\x02\xec?'
p3172
tp3173
Rp3174
ag4
(g8
S'\xa9X\xd6\xf0\xb1p\xee?'
p3175
tp3176
Rp3177
ag4
(g8
S'\xf6\x82B\xf0D\x85\xf7?'
p3178
tp3179
Rp3180
ag4
(g8
S'Q\xa9\xdb\xff\xc0\xa7\xee?'
p3181
tp3182
Rp3183
ag4
(g8
S'\xe7\xf9\x08\xe6\xb3@\xeb?'
p3184
tp3185
Rp3186
ag4
(g8
S'\xc6\xe4\xfb,p\x9c\xeb?'
p3187
tp3188
Rp3189
ag4
(g8
S'\xdf?\x1e=g\x00\xf1?'
p3190
tp3191
Rp3192
ag4
(g8
S'\x9dh\xfe\xd0L\x1a\xec?'
p3193
tp3194
Rp3195
ag4
(g8
S'\x82h/\xc6@\x13\xec?'
p3196
tp3197
Rp3198
ag4
(g8
S'\xa8\xa7A\x19H\xde\xee?'
p3199
tp3200
Rp3201
ag4
(g8
S'\x96\x94\xb9\x0b\x8at\xf0?'
p3202
tp3203
Rp3204
ag4
(g8
S'B>"\xb3\xbb\x0c\xf0?'
p3205
tp3206
Rp3207
ag4
(g8
S'\x9eB\x1d4\xc6\xaf\xf2?'
p3208
tp3209
Rp3210
ag4
(g8
S'Y\x84\xd6\xf6\x81\x12\xee?'
p3211
tp3212
Rp3213
ag4
(g8
S'V\xbb`\xec\xf2\xd6\xea?'
p3214
tp3215
Rp3216
ag4
(g8
S'{K\x11\r\xc2\xb6\xee?'
p3217
tp3218
Rp3219
ag4
(g8
S'w\x9e\xc7\x7fJ\x91\xe9?'
p3220
tp3221
Rp3222
ag4
(g8
S'\x8a;\x9a#\xa3\xf3\xe6?'
p3223
tp3224
Rp3225
ag4
(g8
S'7\xd9L\xac\xd1\x9a\x02@'
p3226
tp3227
Rp3228
ag4
(g8
S'\xc4nK\x981\xab\xe8?'
p3229
tp3230
Rp3231
ag4
(g8
S'#Y^\xf7H\x95\xe8?'
p3232
tp3233
Rp3234
ag4
(g8
S'?S\x82\x93\xbac\xf2?'
p3235
tp3236
Rp3237
ag4
(g8
S'\xe1\xee~\xd2\x12\x93\xf1?'
p3238
tp3239
Rp3240
ag4
(g8
S'\xdeP\xfe\xb2{#\xf3?'
p3241
tp3242
Rp3243
ag4
(g8
S'\x83\x05UK\xe5\xf1\xf0?'
p3244
tp3245
Rp3246
ag4
(g8
S'\xd8\x8d\xfb\x83E\xf5\x01@'
p3247
tp3248
Rp3249
ag4
(g8
S"\x80D\x13k'0\xec?"
p3250
tp3251
Rp3252
ag4
(g8
S'\xd1~\xf7v\xce\x7f\xf2?'
p3253
tp3254
Rp3255
ag4
(g8
S'%K\xc7\xef\xdc\x06\xeb?'
p3256
tp3257
Rp3258
ag4
(g8
S'9\x06\xaf\xfb\xf8\x06\xed?'
p3259
tp3260
Rp3261
ag4
(g8
S'\xcbD\xf2.\xfe\\\xec?'
p3262
tp3263
Rp3264
ag4
(g8
S'\xd9R\xe6%\xcf\xaf\xf2?'
p3265
tp3266
Rp3267
ag4
(g8
S'\x06s\xe0C\xea\xbb\xf0?'
p3268
tp3269
Rp3270
ag4
(g8
S'\x92\x17\xf8\xc5\xc9\xa6\xea?'
p3271
tp3272
Rp3273
ag4
(g8
S'\x19J\x1fd}$\xeb?'
p3274
tp3275
Rp3276
ag4
(g8
S'\xc8?\x12_\xbf(\xf1?'
p3277
tp3278
Rp3279
ag4
(g8
S'\xfb\x8ed\xf6\x16\xfd\xe9?'
p3280
tp3281
Rp3282
ag4
(g8
S'_$\x9dt\x94Y\xf8?'
p3283
tp3284
Rp3285
ag4
(g8
S'\xfa\xa3G\x97\x9e\x80\xe6?'
p3286
tp3287
Rp3288
ag4
(g8
S'X\xc20\xa1F\x14\xee?'
p3289
tp3290
Rp3291
ag4
(g8
S'L\xa7Pp\xc8O\xe9?'
p3292
tp3293
Rp3294
ag4
(g8
S'wGo\x1b\x82\xcb\xf1?'
p3295
tp3296
Rp3297
ag4
(g8
S'<DR\xc5M\n\xf9?'
p3298
tp3299
Rp3300
ag4
(g8
S'Qj\tu\x0b\xe1\xee?'
p3301
tp3302
Rp3303
ag4
(g8
S'\\qa"\x92T\xf4?'
p3304
tp3305
Rp3306
ag4
(g8
S'\xe8\xb9\x83H\x8a\x1a\xe8?'
p3307
tp3308
Rp3309
ag4
(g8
S'\xa4\xc4P\x07\\\x1e\xf1?'
p3310
tp3311
Rp3312
ag4
(g8
S'\x14\xce\xc9Zm\xd7\xe6?'
p3313
tp3314
Rp3315
ag4
(g8
S'+\xaa\xf3\xbbx.\xfc?'
p3316
tp3317
Rp3318
ag4
(g8
S'\xe8Y\xe8\xa5\x97\xf0\xeb?'
p3319
tp3320
Rp3321
ag4
(g8
S'\x1a\xe5,U\x86\xb6\xe5?'
p3322
tp3323
Rp3324
ag4
(g8
S'\x11tP\x17`s\xe9?'
p3325
tp3326
Rp3327
ag4
(g8
S'\x11\xb3\xe9>P\x18\xf1?'
p3328
tp3329
Rp3330
ag4
(g8
S'_\xe8I\xf8\x875\xeb?'
p3331
tp3332
Rp3333
ag4
(g8
S'@\xbd;>\xbb\xd9\xe8?'
p3334
tp3335
Rp3336
ag4
(g8
S'\xd9lw/ZZ\xed?'
p3337
tp3338
Rp3339
ag4
(g8
S'\xed\x88\xe0\xa9\xb8.\xf0?'
p3340
tp3341
Rp3342
ag4
(g8
S'\x8e\xf8qu`8\xea?'
p3343
tp3344
Rp3345
ag4
(g8
S'\x12\xb34\xbd\x18D\xf5?'
p3346
tp3347
Rp3348
ag4
(g8
S'=&\xce\xc8gR\xee?'
p3349
tp3350
Rp3351
ag4
(g8
S'\xd0\xa7\xe0\x97s\x06\xf0?'
p3352
tp3353
Rp3354
ag4
(g8
S'\x0cZ\x91\x88\xb1\xe0\xf8?'
p3355
tp3356
Rp3357
ag4
(g8
S'\x91\xa1f\xad>\n\xeb?'
p3358
tp3359
Rp3360
ag4
(g8
S'\x80E\x9e\x82\xd0P\xed?'
p3361
tp3362
Rp3363
ag4
(g8
S'J\x88D\x9f\x13\x86\xf6?'
p3364
tp3365
Rp3366
ag4
(g8
S'\x1b\xfau\xf6e\xc4\xec?'
p3367
tp3368
Rp3369
ag4
(g8
S'\xa6X rpd\xe9?'
p3370
tp3371
Rp3372
ag4
(g8
S'Q\x9eo\xc3\xb9\x05\xec?'
p3373
tp3374
Rp3375
ag4
(g8
S'\xaf\xa9\x8e\xaf\xd5@\xf0?'
p3376
tp3377
Rp3378
ag4
(g8
S'\xb3\x93}2af\xee?'
p3379
tp3380
Rp3381
ag4
(g8
S'KU\xc0\x1f\xc4E\xe9?'
p3382
tp3383
Rp3384
ag4
(g8
S'\xf3\x9e\xb8\xb0\xbe\xb8\xf0?'
p3385
tp3386
Rp3387
ag4
(g8
S'\xe0=\x06\xa2\xe8u\xec?'
p3388
tp3389
Rp3390
ag4
(g8
S'\xaf0.\xf1\xeb\x9c\xef?'
p3391
tp3392
Rp3393
ag4
(g8
S'\xa3\xc3\x14xQ\x03\xe8?'
p3394
tp3395
Rp3396
ag4
(g8
S'D\x1b\x14I\xae\xfc\xe9?'
p3397
tp3398
Rp3399
ag4
(g8
S'\xe3\xac\xad\xae\xf6\x11\xed?'
p3400
tp3401
Rp3402
ag4
(g8
S'=\xdeHV"}\xe7?'
p3403
tp3404
Rp3405
ag4
(g8
S'q\xd1Du-\xe3\xe9?'
p3406
tp3407
Rp3408
ag4
(g8
S'\xd0VR\x92q\x1a\xeb?'
p3409
tp3410
Rp3411
ag4
(g8
S'Yx"|V^\xee?'
p3412
tp3413
Rp3414
ag4
(g8
S"/[\x8d\r\xb5'\xec?"
p3415
tp3416
Rp3417
ag4
(g8
S'\xad*\xa00S(\xe9?'
p3418
tp3419
Rp3420
ag4
(g8
S's\xe2>\xd2\x0f\xaa\xf3?'
p3421
tp3422
Rp3423
ag4
(g8
S'\x01A\xe9T\xf7\x07\xe9?'
p3424
tp3425
Rp3426
ag4
(g8
S'\x06\xfb\xbd\x0f\x07i\xf1?'
p3427
tp3428
Rp3429
ag4
(g8
S"%\xb4b'\x15e\xf1?"
p3430
tp3431
Rp3432
ag4
(g8
S'\x9b\xd8\xd06\x02\xa5\xee?'
p3433
tp3434
Rp3435
ag4
(g8
S'%\xa2\xa9\xa7\x955\xeb?'
p3436
tp3437
Rp3438
ag4
(g8
S'\xd8b\xc7\xa2z\xe9\xe9?'
p3439
tp3440
Rp3441
ag4
(g8
S'\xcey\x16\x8cO0\xea?'
p3442
tp3443
Rp3444
ag4
(g8
S'\xa4A\xd6\x9dQ\x97\xf0?'
p3445
tp3446
Rp3447
ag4
(g8
S'\xe15\xa5_\xfa|\xe9?'
p3448
tp3449
Rp3450
ag4
(g8
S'\xdb\x91\x8a\x94\x888\xf0?'
p3451
tp3452
Rp3453
ag4
(g8
S'Z\xbd\xe5\xec\xf3\xd1\xf5?'
p3454
tp3455
Rp3456
ag4
(g8
S'\xcc\xb3e!\xd7\x87\xf2?'
p3457
tp3458
Rp3459
ag4
(g8
S'Q\x94>\x17//\xf3?'
p3460
tp3461
Rp3462
ag4
(g8
S's\xa6\xe5s\xf2\xf8\xf8?'
p3463
tp3464
Rp3465
ag4
(g8
S'\xb20`d%v\xf1?'
p3466
tp3467
Rp3468
ag4
(g8
S'\xfd\xff \x80\x172\xef?'
p3469
tp3470
Rp3471
ag4
(g8
S'\xbf\xef.9\xf4\x9b\xe6?'
p3472
tp3473
Rp3474
ag4
(g8
S'\x05\x12t\xc2\xcdy\xe7?'
p3475
tp3476
Rp3477
ag4
(g8
S'\xe5~\x15\xcfv\xdb\xea?'
p3478
tp3479
Rp3480
ag4
(g8
S'\x1fO\xef\x0b\xaeS\xee?'
p3481
tp3482
Rp3483
ag4
(g8
S'1\xe4\xd3D\xf7j\xe8?'
p3484
tp3485
Rp3486
ag4
(g8
S'jQ\xa2\x06\x971\xe7?'
p3487
tp3488
Rp3489
ag4
(g8
S'\xfa\t\x85I\x92\xa3\xec?'
p3490
tp3491
Rp3492
ag4
(g8
S'1\xa4\xa38\x16\xba\xea?'
p3493
tp3494
Rp3495
ag4
(g8
S'\xda\xb5\x91\xae;e\xf9?'
p3496
tp3497
Rp3498
ag4
(g8
S'Mj\x93\x00\xbc\x80\xe8?'
p3499
tp3500
Rp3501
ag4
(g8
S'\x91\xc7\xb6\x98G\xd3\xe9?'
p3502
tp3503
Rp3504
ag4
(g8
S'\x18)\xcb\x94\x0e\xf3\xed?'
p3505
tp3506
Rp3507
ag4
(g8
S'\x02\xc1\xf6W\xe8[\xe7?'
p3508
tp3509
Rp3510
ag4
(g8
S'\xb5\xd6CMy\xd9\xf2?'
p3511
tp3512
Rp3513
ag4
(g8
S'Z\xc6\x9f:\x05y\xe8?'
p3514
tp3515
Rp3516
ag4
(g8
S'\x9f\xa6\xf6\xec @\xe6?'
p3517
tp3518
Rp3519
ag4
(g8
S',v\x9c\x1aJ\x9d\xf6?'
p3520
tp3521
Rp3522
ag4
(g8
S'`:\xd4\x8f\x8bS\xee?'
p3523
tp3524
Rp3525
ag4
(g8
S'q\x8dz\xcf\x84p\xf4?'
p3526
tp3527
Rp3528
ag4
(g8
S'\x97 \xaev\x06\x9d\xf3?'
p3529
tp3530
Rp3531
ag4
(g8
S'i\xceV\x830Z\xee?'
p3532
tp3533
Rp3534
ag4
(g8
S'\xc6M\xf5\xca$h\xed?'
p3535
tp3536
Rp3537
ag4
(g8
S'\xec\xf1!\x06\x9b\xe6\xe9?'
p3538
tp3539
Rp3540
ag4
(g8
S'\xe9\xb6\xcd^\xc4\xf8\xe6?'
p3541
tp3542
Rp3543
ag4
(g8
S'=\xc0\x93\\\x98 \xf2?'
p3544
tp3545
Rp3546
ag4
(g8
S'}j\xe8\x9f\xa1R\xed?'
p3547
tp3548
Rp3549
ag4
(g8
S'\x84n\xfd\xdc\xf8l\xee?'
p3550
tp3551
Rp3552
ag4
(g8
S'\x02\x88\xd2awS\xea?'
p3553
tp3554
Rp3555
ag4
(g8
S'\x97^\x7f6#\xdb\xe9?'
p3556
tp3557
Rp3558
ag4
(g8
S'0U/\xb9\xcb\xca\xea?'
p3559
tp3560
Rp3561
ag4
(g8
S'\xe7\x1d{\xaad\xde\xf7?'
p3562
tp3563
Rp3564
ag4
(g8
S'\xd6\x90o\x1b\xe0\xca\xf1?'
p3565
tp3566
Rp3567
ag4
(g8
S'W\xf7\xd0\xa5\n\xf1\xe8?'
p3568
tp3569
Rp3570
ag4
(g8
S'\x000\xe0\x83\xb5"\xee?'
p3571
tp3572
Rp3573
ag4
(g8
S'\xc7o\xbbhy\xbf\xec?'
p3574
tp3575
Rp3576
ag4
(g8
S'\x90\xe0\x11bC\xb6\xec?'
p3577
tp3578
Rp3579
ag4
(g8
S'\xd1s\xac\x83\x17\xe5\xea?'
p3580
tp3581
Rp3582
ag4
(g8
S'\xbbw\xbcA\xa2\x1d\xee?'
p3583
tp3584
Rp3585
ag4
(g8
S'\x1a\xaf\xb4\xe4\xd1\x1d\xeb?'
p3586
tp3587
Rp3588
ag4
(g8
S'\x19(\xc0:K\x9c\xeb?'
p3589
tp3590
Rp3591
ag4
(g8
S'\xde{\xf1\x99+W\xe6?'
p3592
tp3593
Rp3594
ag4
(g8
S'\x99\xf4)\xad\xfc\x0c\xe8?'
p3595
tp3596
Rp3597
ag4
(g8
S'\x86l\x04\x99\x99\xe0\xeb?'
p3598
tp3599
Rp3600
ag4
(g8
S'\x12W2\xab\xa7\xd3\xee?'
p3601
tp3602
Rp3603
ag4
(g8
S'\x93\xb5\xbe~\xb3\xd4\xe6?'
p3604
tp3605
Rp3606
ag4
(g8
S')\x00Wa\x81\x1b\xf0?'
p3607
tp3608
Rp3609
ag4
(g8
S'J\x83[\xdd\x93\xca\xf0?'
p3610
tp3611
Rp3612
ag4
(g8
S'\xd1\xb5D\x8a#\x0f\xea?'
p3613
tp3614
Rp3615
ag4
(g8
S'\x96\x04\x92\xba\xa9\x12\xe8?'
p3616
tp3617
Rp3618
ag4
(g8
S'\xd7k\x96\xbcm\x84\xec?'
p3619
tp3620
Rp3621
ag4
(g8
S'\xa3\xe3\xf0R\xfd`\xe9?'
p3622
tp3623
Rp3624
ag4
(g8
S'\xf0V\xb49\xdb\xe6\xe7?'
p3625
tp3626
Rp3627
ag4
(g8
S'\xb5\xb4\xfb\xea\xab\xf0\xe9?'
p3628
tp3629
Rp3630
ag4
(g8
S'O\xc7\xecAe\xa8\xea?'
p3631
tp3632
Rp3633
ag4
(g8
S'\x8b\x8e\xbbLm\x1e\xed?'
p3634
tp3635
Rp3636
ag4
(g8
S'c-\xcd\xa9AM\xe8?'
p3637
tp3638
Rp3639
ag4
(g8
S'\xb6\x9b\x87\xd7\x10/\xf3?'
p3640
tp3641
Rp3642
ag4
(g8
S'\x13\x9b\xae\x1bW:\xea?'
p3643
tp3644
Rp3645
ag4
(g8
S'9\xb6\xcaY\x8cO\xf2?'
p3646
tp3647
Rp3648
ag4
(g8
S'\x0f\x95\x14[\x14\x82\xe7?'
p3649
tp3650
Rp3651
ag4
(g8
S'\xe9Y\xfc\xb8\xdc\xc5\xeb?'
p3652
tp3653
Rp3654
ag4
(g8
S'_\xaf\xa7\xa0\xf4X\xf2?'
p3655
tp3656
Rp3657
ag4
(g8
S'\xac\xb9\xfe\x06l\xcd\xec?'
p3658
tp3659
Rp3660
ag4
(g8
S'\xd5\x13\x12\xf8\xcfQ\xed?'
p3661
tp3662
Rp3663
ag4
(g8
S'\xb1\xec\xd1\xe2\x1d\xe2\xeb?'
p3664
tp3665
Rp3666
ag4
(g8
S'\x90Ab\x0b\xdbV\xea?'
p3667
tp3668
Rp3669
ag4
(g8
S'#\xc3\xd2\xdd)\x87\xed?'
p3670
tp3671
Rp3672
ag4
(g8
S'\x91 I\xb0\xb3?\xf5?'
p3673
tp3674
Rp3675
ag4
(g8
S'uab\x08\x1d\x05\xea?'
p3676
tp3677
Rp3678
ag4
(g8
S'\xbd\xbdV\xb6\x11\xd4\xef?'
p3679
tp3680
Rp3681
ag4
(g8
S'x\x07g\x03\xc0o\xee?'
p3682
tp3683
Rp3684
ag4
(g8
S'\x7fqFCer\xed?'
p3685
tp3686
Rp3687
ag4
(g8
S'\xea\xbc\xa4\xb8\xbfE\xf2?'
p3688
tp3689
Rp3690
ag4
(g8
S'(\xd0p\xda\x93\xae\xed?'
p3691
tp3692
Rp3693
ag4
(g8
S'Z\x0f\x9bG4\xe5\xea?'
p3694
tp3695
Rp3696
ag4
(g8
S'\x1d\x03\x1bx\x8bX\xfe?'
p3697
tp3698
Rp3699
ag4
(g8
S'\x86\xc1\xfb\x13X=\xef?'
p3700
tp3701
Rp3702
ag4
(g8
S'"\x11\x8d\'\xab\x06\xf2?'
p3703
tp3704
Rp3705
ag4
(g8
S'\x99\x1b\xadrRK\xe9?'
p3706
tp3707
Rp3708
ag4
(g8
S'Vr\xf6\xf2k\x9d\xef?'
p3709
tp3710
Rp3711
ag4
(g8
S'gJx"mw\xe9?'
p3712
tp3713
Rp3714
ag4
(g8
S'8\xfeA\xaaAu\xe6?'
p3715
tp3716
Rp3717
ag4
(g8
S'\x8f\x83U8\xab9\xea?'
p3718
tp3719
Rp3720
ag4
(g8
S'p\xfe@\xb9\xed\x8c\xf6?'
p3721
tp3722
Rp3723
ag4
(g8
S'\xd6rs\x1c \xc6\xe7?'
p3724
tp3725
Rp3726
ag4
(g8
S'\x91Dn\x14\x08\xe9\xfc?'
p3727
tp3728
Rp3729
ag4
(g8
S'\x02\x01B\xbf\x0f`\xf2?'
p3730
tp3731
Rp3732
ag4
(g8
S"\xfa8\x12\xcf'f\xf9?"
p3733
tp3734
Rp3735
ag4
(g8
S'r/\xc1+\xe8Y\xf0?'
p3736
tp3737
Rp3738
ag4
(g8
S'\x83\x93_\xfblY\xea?'
p3739
tp3740
Rp3741
ag4
(g8
S'\xd6u\xb8F\xe6\x1f\xea?'
p3742
tp3743
Rp3744
ag4
(g8
S'\x1674\x06\xd4\xca\xf4?'
p3745
tp3746
Rp3747
ag4
(g8
S'\xc5\x1a7\xc1\xf3\xc4\xea?'
p3748
tp3749
Rp3750
ag4
(g8
S'M\x85\x15\x0c\xa1\x0e\xec?'
p3751
tp3752
Rp3753
ag4
(g8
S'\x11\x9e\x16\x1e\xd3m\xe7?'
p3754
tp3755
Rp3756
ag4
(g8
S'~\xedpq4\xfc\xe5?'
p3757
tp3758
Rp3759
ag4
(g8
S'\x94\xf6\x88\x11\xbcQ\xeb?'
p3760
tp3761
Rp3762
ag4
(g8
S'\rZ\xce\xed\x9f@\xf0?'
p3763
tp3764
Rp3765
ag4
(g8
S'\x1f\xe4MBJ\x02\xe7?'
p3766
tp3767
Rp3768
ag4
(g8
S'\x04\xf8\xd1$\xddI\xea?'
p3769
tp3770
Rp3771
ag4
(g8
S'+62X\x8eQ\xe8?'
p3772
tp3773
Rp3774
ag4
(g8
S'6p\x9b\xcc\x90\xce\xeb?'
p3775
tp3776
Rp3777
ag4
(g8
S'j\x17=\x1ev\xdb\xe9?'
p3778
tp3779
Rp3780
ag4
(g8
S'\xbe\xe0j\x8cnA\xf3?'
p3781
tp3782
Rp3783
ag4
(g8
S'LT\xaa\xba\x17\x12\xef?'
p3784
tp3785
Rp3786
ag4
(g8
S'y\xf5\xc0(\x83k\xe8?'
p3787
tp3788
Rp3789
ag4
(g8
S"\r{_r'\xea\xee?"
p3790
tp3791
Rp3792
ag4
(g8
S')\x96.3\xd2\xc0\xf0?'
p3793
tp3794
Rp3795
ag4
(g8
S'#\xdct\xf6\xba\xe8\xea?'
p3796
tp3797
Rp3798
ag4
(g8
S'\x82\xa4\xf5\x06\xc5\n\xfb?'
p3799
tp3800
Rp3801
ag4
(g8
S'\x16\xa0\xed\xcd\xcc\x12\xf0?'
p3802
tp3803
Rp3804
ag4
(g8
S'\xa4\x1b\x03\x0f\xe2\x06\xeb?'
p3805
tp3806
Rp3807
ag4
(g8
S'\xe0\x1eH\xf2]\x90\xe6?'
p3808
tp3809
Rp3810
ag4
(g8
S'%\x9f\x08\xf1\xb7<\xeb?'
p3811
tp3812
Rp3813
ag4
(g8
S'\x9bs\xfb}}\xd4\xf2?'
p3814
tp3815
Rp3816
ag4
(g8
S'\x87\xdf\x83\xb5\xf5\xf8\xeb?'
p3817
tp3818
Rp3819
ag4
(g8
S'\noo\xbc\x9d\xe3\xe6?'
p3820
tp3821
Rp3822
ag4
(g8
S'\xc2._\x0f\x04\xf7\xe9?'
p3823
tp3824
Rp3825
ag4
(g8
S"6',?\xc1i\xec?"
p3826
tp3827
Rp3828
ag4
(g8
S'#_~<\x1a\x06\xeb?'
p3829
tp3830
Rp3831
ag4
(g8
S'\x93\xbbF\xedjw\xf3?'
p3832
tp3833
Rp3834
ag4
(g8
S'\n\xce/\x83?\x06\xeb?'
p3835
tp3836
Rp3837
ag4
(g8
S'\n\xff\xf5\x13\xa6]\xed?'
p3838
tp3839
Rp3840
ag4
(g8
S'\x9bs\xc3^\xf0\xf6\xec?'
p3841
tp3842
Rp3843
ag4
(g8
S'\x03\x9a\xe0>\xba\xf9\xeb?'
p3844
tp3845
Rp3846
ag4
(g8
S'u\x9c\xf2?\xf0Z\xef?'
p3847
tp3848
Rp3849
ag4
(g8
S'\xf0\xd3\xc9\x7f\xdb\xde\xe9?'
p3850
tp3851
Rp3852
ag4
(g8
S'\x12\xa7\x85e\x9a\xac\xea?'
p3853
tp3854
Rp3855
ag4
(g8
S'\x8d\xcap\x8eO\xee\xf6?'
p3856
tp3857
Rp3858
ag4
(g8
S'%9\x9f\x06\xbe\xbb\xe9?'
p3859
tp3860
Rp3861
ag4
(g8
S'\x92\xbe\xc0r\xba\xb6\xe9?'
p3862
tp3863
Rp3864
ag4
(g8
S'\xfa\x8aw\xd7Bi\xf2?'
p3865
tp3866
Rp3867
ag4
(g8
S'\xae\xb8A\xabzy\xec?'
p3868
tp3869
Rp3870
ag4
(g8
S'L\xfd\x06\xea\x17\xf2\xea?'
p3871
tp3872
Rp3873
ag4
(g8
S'\xad~\xa4\xe4,\xb1\xeb?'
p3874
tp3875
Rp3876
ag4
(g8
S'\r\xa8/\xfby|\xee?'
p3877
tp3878
Rp3879
ag4
(g8
S'\xa8\xb6\xcc\xa2u\xd4\xe9?'
p3880
tp3881
Rp3882
ag4
(g8
S't)\xf4F\xf8M\xf8?'
p3883
tp3884
Rp3885
ag4
(g8
S'63-4\xfc\x1d\xf0?'
p3886
tp3887
Rp3888
ag4
(g8
S'\xfe\xd8\x06x\x8d\x14\xf1?'
p3889
tp3890
Rp3891
ag4
(g8
S'T=\x85c\x17\xc6\xf3?'
p3892
tp3893
Rp3894
ag4
(g8
S'3\x8c\xe0\xda\x8b|\xea?'
p3895
tp3896
Rp3897
ag4
(g8
S'fdsU\xd0"\xe6?'
p3898
tp3899
Rp3900
ag4
(g8
S'.h\xb5\x05^\xe0\xe6?'
p3901
tp3902
Rp3903
ag4
(g8
S'2\x8c\x96:\xd1 \xe8?'
p3904
tp3905
Rp3906
ag4
(g8
S'u\x86X\xa5\x00\x15\xed?'
p3907
tp3908
Rp3909
ag4
(g8
S'\xfbM\x82\xd4\x81\xf4\xf7?'
p3910
tp3911
Rp3912
ag4
(g8
S'h\x04\r\xd8\x89\xd7\xea?'
p3913
tp3914
Rp3915
ag4
(g8
S'\xae\xb95aq\xed\xec?'
p3916
tp3917
Rp3918
ag4
(g8
S'\x01\x99\x11\xaf\xcc;\xe7?'
p3919
tp3920
Rp3921
ag4
(g8
S'2\xe5A\x96\xe2\x1b\xf0?'
p3922
tp3923
Rp3924
ag4
(g8
S'\x8e1\xf3\x83K\x16\xe8?'
p3925
tp3926
Rp3927
ag4
(g8
S'\\R\xbb\xca\xff\xa6\xe9?'
p3928
tp3929
Rp3930
ag4
(g8
S')\xeb\x95\xfe\x86\xbd\xee?'
p3931
tp3932
Rp3933
ag4
(g8
S'l\xdd\xf8\xef\xb4~\xe7?'
p3934
tp3935
Rp3936
ag4
(g8
S'N\xcf\x1d|\x13d\xe9?'
p3937
tp3938
Rp3939
ag4
(g8
S'p\x19\x8a\x97/\xc9\xe5?'
p3940
tp3941
Rp3942
ag4
(g8
S'R)\xb7/\x93\x82\xfe?'
p3943
tp3944
Rp3945
ag4
(g8
S'N\x18\xde\xf8\xf2\xe0\xec?'
p3946
tp3947
Rp3948
ag4
(g8
S'\x03H\x1fH\x11\xe7\xe8?'
p3949
tp3950
Rp3951
ag4
(g8
S'\x07\xa9^\x9a\xff%\xef?'
p3952
tp3953
Rp3954
ag4
(g8
S'\x98\xbey\xa0?\xb7\xec?'
p3955
tp3956
Rp3957
ag4
(g8
S'\xeel\xd1\xe6\x14\x0f\xf1?'
p3958
tp3959
Rp3960
ag4
(g8
S'\xdc\x8e\xa9\xe3\xd9\x97\xec?'
p3961
tp3962
Rp3963
ag4
(g8
S'\xc7\xaf\x1f\x18\x9eF\xea?'
p3964
tp3965
Rp3966
ag4
(g8
S'\x9fE\xd2\x03\xea4\xf3?'
p3967
tp3968
Rp3969
ag4
(g8
S'\xc6\xea.\xd3\x1f\xf6\xf3?'
p3970
tp3971
Rp3972
ag4
(g8
S'\x9e\x8b3\x98uC\xee?'
p3973
tp3974
Rp3975
ag4
(g8
S'\x8c\xfd@|\x9b\r\xef?'
p3976
tp3977
Rp3978
ag4
(g8
S'A3\xf4(\x14\xbb\xf4?'
p3979
tp3980
Rp3981
ag4
(g8
S'\xf8\xbfio\x7fm\xe8?'
p3982
tp3983
Rp3984
ag4
(g8
S'\xd35OKJ\x1d\xf0?'
p3985
tp3986
Rp3987
ag4
(g8
S'\xdd\xb6\xba\xdd\xa7W\xea?'
p3988
tp3989
Rp3990
ag4
(g8
S'\xfa\x16\xf4\xe9\xc8\xb2\xee?'
p3991
tp3992
Rp3993
ag4
(g8
S'JT\x9f+%\xa6\xed?'
p3994
tp3995
Rp3996
ag4
(g8
S'\x14\\\x1c\xf9`\xc6\xee?'
p3997
tp3998
Rp3999
ag4
(g8
S'\x88\x9d\x89 \xa9W\xef?'
p4000
tp4001
Rp4002
ag4
(g8
S'\xfe\xd6Wo{\xa2\xec?'
p4003
tp4004
Rp4005
ag4
(g8
S'\xae\x16\xca\xaa\xb4\x08\xe8?'
p4006
tp4007
Rp4008
ag4
(g8
S'\xc5P\xaf\x8e\x89\xb2\xfa?'
p4009
tp4010
Rp4011
ag4
(g8
S'\xa5\x07\xe2\x9a"\xc8\xef?'
p4012
tp4013
Rp4014
ag4
(g8
S'+4\x91\x14.\x91\xed?'
p4015
tp4016
Rp4017
ag4
(g8
S'/\x1d\x1b\xf2\xcaa\xeb?'
p4018
tp4019
Rp4020
ag4
(g8
S'\xd0\x86Zb/:\xe9?'
p4021
tp4022
Rp4023
ag4
(g8
S'!\xed\x12\x9e\xb1\xf6\xec?'
p4024
tp4025
Rp4026
ag4
(g8
S'\xad1\xff`\r\xfc\xe6?'
p4027
tp4028
Rp4029
ag4
(g8
S'\x8am4\x07x\xfe\xed?'
p4030
tp4031
Rp4032
ag4
(g8
S'\xe8>\xe1\x8b\xd6\x96\xe9?'
p4033
tp4034
Rp4035
ag4
(g8
S'u\xe9\x0ba&\n\xe6?'
p4036
tp4037
Rp4038
ag4
(g8
S'\xe6\x05\xf3\xe1\x92\xa2\xe7?'
p4039
tp4040
Rp4041
ag4
(g8
S'\xe3\xcb,\xa9\ta\xef?'
p4042
tp4043
Rp4044
ag4
(g8
S'\xfc\x11\xbfxdi\xff?'
p4045
tp4046
Rp4047
ag4
(g8
S'\xa0y\xe5\xae\x90\xa4\xfc?'
p4048
tp4049
Rp4050
ag4
(g8
S'\x8b1\xc5\xcfyQ\xf5?'
p4051
tp4052
Rp4053
ag4
(g8
S'\x19Yw\x8b^\xfc\xf0?'
p4054
tp4055
Rp4056
ag4
(g8
S'\xe4\xd8\xf8)-\xb9\xed?'
p4057
tp4058
Rp4059
ag4
(g8
S'La0\x9ai\\\xec?'
p4060
tp4061
Rp4062
ag4
(g8
S'\xb5?\x1a#&\xbd\xf2?'
p4063
tp4064
Rp4065
ag4
(g8
S'\xce\xfd#\xe5u7\xec?'
p4066
tp4067
Rp4068
ag4
(g8
S'$\xfa.\xb6S\x0e\xeb?'
p4069
tp4070
Rp4071
ag4
(g8
S'l\xbd\x8czr\xc2\xed?'
p4072
tp4073
Rp4074
ag4
(g8
S'\x19\x94\x87\xedm\xd0\xe9?'
p4075
tp4076
Rp4077
ag4
(g8
S'o|\x15\xb1\x0b\x8c\xed?'
p4078
tp4079
Rp4080
ag4
(g8
S'\xb73)=\x15\xa0\xef?'
p4081
tp4082
Rp4083
ag4
(g8
S'\xb0\xc0Mx\x98\xa4\xe9?'
p4084
tp4085
Rp4086
ag4
(g8
S'w\xcc\xf62a\xcc\xef?'
p4087
tp4088
Rp4089
ag4
(g8
S'\xbc\x8a(\xb4\x08\x8f\xed?'
p4090
tp4091
Rp4092
ag4
(g8
S'\xe8\xf8c\\\x13\x12\xeb?'
p4093
tp4094
Rp4095
ag4
(g8
S'\xba\xe0\x93\xac\xd6l\xed?'
p4096
tp4097
Rp4098
ag4
(g8
S'\x7f\xcd{\x10\x8d/\xee?'
p4099
tp4100
Rp4101
ag4
(g8
S'_\x8eG\xd0\xd1\x1d\xed?'
p4102
tp4103
Rp4104
ag4
(g8
S'\xeb\xce\x88\x91g3\xf8?'
p4105
tp4106
Rp4107
ag4
(g8
S'\x14u\xeb\xdd\xe4\x1a\xe9?'
p4108
tp4109
Rp4110
ag4
(g8
S"\xba\xbe\x89'\xd2G\xf0?"
p4111
tp4112
Rp4113
ag4
(g8
S'\xa0\x0c\x8e\xe208\xf0?'
p4114
tp4115
Rp4116
ag4
(g8
S'"\x00u3\xe5\x82\xee?'
p4117
tp4118
Rp4119
ag4
(g8
S'\xf4\xdb\x02\xc2\xd0T\xe8?'
p4120
tp4121
Rp4122
ag4
(g8
S'7\xb6|;\xae\xb3\xf4?'
p4123
tp4124
Rp4125
ag4
(g8
S'\xbfqa>\xbb"\xe7?'
p4126
tp4127
Rp4128
ag4
(g8
S'\x1au\xdf\x92\xb2\xa5\x04@'
p4129
tp4130
Rp4131
ag4
(g8
S'\xf8s\xf0\x0c\x04\xca\xf5?'
p4132
tp4133
Rp4134
ag4
(g8
S'\x81\x19$\x9a\x855\xef?'
p4135
tp4136
Rp4137
ag4
(g8
S'\x85\x1cZ\xb7Q\xc5\xeb?'
p4138
tp4139
Rp4140
ag4
(g8
S'O\xb5F#\xbd\xf8\xec?'
p4141
tp4142
Rp4143
ag4
(g8
S'\xec\xbf\xebi\x82\x83\xf0?'
p4144
tp4145
Rp4146
ag4
(g8
S'\x8a\xf4\xc087\x18\xf3?'
p4147
tp4148
Rp4149
ag4
(g8
S'b\x0c`/\x8f[\xf3?'
p4150
tp4151
Rp4152
ag4
(g8
S'\x1b\x96\xe2\xfa<\xc8\xea?'
p4153
tp4154
Rp4155
ag4
(g8
S'\xe4N\x9bB\xa3\xd3\xe8?'
p4156
tp4157
Rp4158
ag4
(g8
S'-\\\xf6\x87\xf3\xeb\xe5?'
p4159
tp4160
Rp4161
ag4
(g8
S'\xca~\x89\x7f\xbe\x98\xf2?'
p4162
tp4163
Rp4164
ag4
(g8
S'\x1c\x9e\xa0\x8a0r\xec?'
p4165
tp4166
Rp4167
ag4
(g8
S'\xec\xb6,2\xae\x96\xf3?'
p4168
tp4169
Rp4170
ag4
(g8
S'\xf7\xac\xa2G\x9b\x1b\xf1?'
p4171
tp4172
Rp4173
ag4
(g8
S'5\x136\x1cj|\xf2?'
p4174
tp4175
Rp4176
ag4
(g8
S'\xfd\x91\xf6\x11\x8be\xe9?'
p4177
tp4178
Rp4179
ag4
(g8
S'Y\x17S\x05\xe4\xce\xe9?'
p4180
tp4181
Rp4182
ag4
(g8
S'I\xaa\xce5\x99\xc1\xf7?'
p4183
tp4184
Rp4185
ag4
(g8
S'm\x9b\xf5B\xbe\xe4\xef?'
p4186
tp4187
Rp4188
ag4
(g8
S'\xb2\x05^\x11\xf4R\xf8?'
p4189
tp4190
Rp4191
ag4
(g8
S'PA\xe5\x1d\xf2\x97\xe8?'
p4192
tp4193
Rp4194
ag4
(g8
S'yA\x97<n>\xe8?'
p4195
tp4196
Rp4197
ag4
(g8
S'gX\x99:\xaa\xb4\xf7?'
p4198
tp4199
Rp4200
ag4
(g8
S'a}\xf5\x1b\xcd\xe0\xee?'
p4201
tp4202
Rp4203
ag4
(g8
S'\xb4\x16`\x94\xcd!\xee?'
p4204
tp4205
Rp4206
ag4
(g8
S'6\xfev\xb2\xce;\xe7?'
p4207
tp4208
Rp4209
ag4
(g8
S'N\xd4~9\xf3\xe8\xf6?'
p4210
tp4211
Rp4212
ag4
(g8
S'\x1c\xe4\x82p\x80[\xef?'
p4213
tp4214
Rp4215
ag4
(g8
S'\xe1\x87\xd3\xb5\x1f\xa7\xec?'
p4216
tp4217
Rp4218
ag4
(g8
S'\x90\x91\xfe\x1a\xb3\xdc\xe6?'
p4219
tp4220
Rp4221
ag4
(g8
S'p\x9f\xaa]Ov\xee?'
p4222
tp4223
Rp4224
ag4
(g8
S'>\xb1\t\xec\xccz\xf1?'
p4225
tp4226
Rp4227
ag4
(g8
S'\x97\xdc\xd8\xdd\xa4b\xed?'
p4228
tp4229
Rp4230
ag4
(g8
S'\xff\xdcc@\x8cP\xeb?'
p4231
tp4232
Rp4233
ag4
(g8
S'\x90Bp\xeb\x1f\xe0\xf0?'
p4234
tp4235
Rp4236
ag4
(g8
S'#\x1c\xe8r\xeb\x88\xeb?'
p4237
tp4238
Rp4239
ag4
(g8
S'D\xf9\xc6\x91m\x1a\xf2?'
p4240
tp4241
Rp4242
ag4
(g8
S'\xb0\xecC\x1c\xa8d\xf0?'
p4243
tp4244
Rp4245
ag4
(g8
S'\x01\x84\xd4(\xbcn\xe8?'
p4246
tp4247
Rp4248
ag4
(g8
S'k\xbb\xee0\xae\xb7\xf2?'
p4249
tp4250
Rp4251
ag4
(g8
S'0\xce\xe4Q\x10\xa2\xeb?'
p4252
tp4253
Rp4254
ag4
(g8
S'^g\x86\xc5<\x8a\xef?'
p4255
tp4256
Rp4257
ag4
(g8
S'J \xce\x93\xe5\xf8\xfd?'
p4258
tp4259
Rp4260
ag4
(g8
S'\x92\xecN+6\xbd\xf0?'
p4261
tp4262
Rp4263
ag4
(g8
S'\xb0\xc1\xdd\xc3 \xd8\xeb?'
p4264
tp4265
Rp4266
ag4
(g8
S'&\xe7\xa3\xa8\xd0\x0e\xe6?'
p4267
tp4268
Rp4269
ag4
(g8
S'B\x89>2\xd6\xb5\xeb?'
p4270
tp4271
Rp4272
ag4
(g8
S';\x90C=\x9an\xea?'
p4273
tp4274
Rp4275
ag4
(g8
S'\x11\xac\xd8\xe4j,\xf4?'
p4276
tp4277
Rp4278
ag4
(g8
S'te\x9f\xfa\xc1.\xe6?'
p4279
tp4280
Rp4281
ag4
(g8
S'\x0bn\x15\x0c\x82\x86\xf0?'
p4282
tp4283
Rp4284
ag4
(g8
S'\xbf|c\\<`\xee?'
p4285
tp4286
Rp4287
ag4
(g8
S'k\x83]?X,\xe9?'
p4288
tp4289
Rp4290
ag4
(g8
S'Nx\xdd\xc8\x8a\x82\xf0?'
p4291
tp4292
Rp4293
ag4
(g8
S'"\xfe\xc4\xf7"\x12\xec?'
p4294
tp4295
Rp4296
ag4
(g8
S'\xbd~F{~L\xf3?'
p4297
tp4298
Rp4299
ag4
(g8
S'1\x1c\x11\xd5\x85[\xf0?'
p4300
tp4301
Rp4302
ag4
(g8
S'\xc8\x8e\x8e:\x9d\xd2\xea?'
p4303
tp4304
Rp4305
ag4
(g8
S'\x94\x19\x9b<#0\xe9?'
p4306
tp4307
Rp4308
ag4
(g8
S'\xcc\xadS\xa0\x84$\xeb?'
p4309
tp4310
Rp4311
ag4
(g8
S'\x12\xe6\xac\xb6M.\xea?'
p4312
tp4313
Rp4314
ag4
(g8
S'NJ\x1a(\x1b"\xf1?'
p4315
tp4316
Rp4317
ag4
(g8
S'\xc4\xe1L\xc8\x15`\xec?'
p4318
tp4319
Rp4320
ag4
(g8
S'\x83xu\xc3\xdb\xf2\xef?'
p4321
tp4322
Rp4323
ag4
(g8
S'\x19Z\xaa\x936\x9f\xeb?'
p4324
tp4325
Rp4326
ag4
(g8
S'yq\xef\x89H\x1d\xec?'
p4327
tp4328
Rp4329
ag4
(g8
S'\xb2\x06|b$&\xe9?'
p4330
tp4331
Rp4332
ag4
(g8
S'\xbeu\x11O]\x8c\xf3?'
p4333
tp4334
Rp4335
ag4
(g8
S'\xe2\xa6\x0eN\xb4\x87\xfc?'
p4336
tp4337
Rp4338
ag4
(g8
S"'1+#\x9f\x06\xf0?"
p4339
tp4340
Rp4341
ag4
(g8
S'\x86|A7\xef(\xe8?'
p4342
tp4343
Rp4344
ag4
(g8
S'2\x14,\x9eg?\xf0?'
p4345
tp4346
Rp4347
ag4
(g8
S'\x9b\tFH\x81\xa8\xe9?'
p4348
tp4349
Rp4350
ag4
(g8
S'}b\x8bF\xbf\xbe\xe7?'
p4351
tp4352
Rp4353
ag4
(g8
S'\x1a\xa6q\xfan\xee\xed?'
p4354
tp4355
Rp4356
ag4
(g8
S'\xae\xc4(l\xd4(\xf0?'
p4357
tp4358
Rp4359
ag4
(g8
S'\xeb\x1d+\xeb\x7f]\xe8?'
p4360
tp4361
Rp4362
ag4
(g8
S"(\x8f\xa0'{\xf0\xea?"
p4363
tp4364
Rp4365
ag4
(g8
S'\xaa\xa6\xf8\xd8\xb5\xa9\xee?'
p4366
tp4367
Rp4368
ag4
(g8
S'\xfdc_O/@\xea?'
p4369
tp4370
Rp4371
ag4
(g8
S'\x83\xe5k\xa4\x11\x9e\xe7?'
p4372
tp4373
Rp4374
ag4
(g8
S'\xbe\xf5Oh\xc3\xf2\xe8?'
p4375
tp4376
Rp4377
ag4
(g8
S'\x1e\xe8\xd2\xcc\xc3-\xeb?'
p4378
tp4379
Rp4380
ag4
(g8
S'\xcf\x85\x1e\x03\x82\xb5\xec?'
p4381
tp4382
Rp4383
ag4
(g8
S'\x974]\xd6|\xd5\xe7?'
p4384
tp4385
Rp4386
ag4
(g8
S'b\xa5\xaex\xe9d\x04@'
p4387
tp4388
Rp4389
ag4
(g8
S'fb\xfb\xd3\xda>\xf0?'
p4390
tp4391
Rp4392
ag4
(g8
S'n\x13\xd2\xf7\xc5\xb8\xea?'
p4393
tp4394
Rp4395
ag4
(g8
S'\x04\x16T\xc6\xb2\x91\xf0?'
p4396
tp4397
Rp4398
ag4
(g8
S'\xb0\xf6\xd0\xa9\xbeT\xec?'
p4399
tp4400
Rp4401
ag4
(g8
S'i\x11/\x84\xd4\xb0\xec?'
p4402
tp4403
Rp4404
ag4
(g8
S'\xfa\xbc\x14\x7f\x11\t\xf0?'
p4405
tp4406
Rp4407
ag4
(g8
S'1\x8bw\xce7\x9a\xed?'
p4408
tp4409
Rp4410
ag4
(g8
S"h\x93q\xea'\\\xea?"
p4411
tp4412
Rp4413
ag4
(g8
S'\x14\xcb\xadY\xfa\x88\xf5?'
p4414
tp4415
Rp4416
ag4
(g8
S'\x1b\x10\x9d%\x98\x88\xe8?'
p4417
tp4418
Rp4419
ag4
(g8
S'j\x85\xa8\xc7\x05y\xea?'
p4420
tp4421
Rp4422
ag4
(g8
S'm\x99\xab\xea\x1b\xe7\xe6?'
p4423
tp4424
Rp4425
ag4
(g8
S'A\xc7\x94\xa1\x1f\x0f\xeb?'
p4426
tp4427
Rp4428
ag4
(g8
S'\xb3\xacx\xc5\x96\xfc\xee?'
p4429
tp4430
Rp4431
ag4
(g8
S'if\x10S\xbc\xac\xe8?'
p4432
tp4433
Rp4434
ag4
(g8
S"'\x82\x89i#\xa4\xf3?"
p4435
tp4436
Rp4437
ag4
(g8
S'\x93\x97zD\xdf\xeb\xeb?'
p4438
tp4439
Rp4440
ag4
(g8
S'%\xb0T\x82\xf1z\xf2?'
p4441
tp4442
Rp4443
ag4
(g8
S'\x83ct@\xc2\xdf\xec?'
p4444
tp4445
Rp4446
ag4
(g8
S'\x833\xe9\x81E\xff\xf3?'
p4447
tp4448
Rp4449
ag4
(g8
S'\xe2)\xc3\xb7\x8d\x1a\xe9?'
p4450
tp4451
Rp4452
ag4
(g8
S'hW\xed\x1fB\xa0\x06@'
p4453
tp4454
Rp4455
ag4
(g8
S'Q\x9d]\xd6\xb9\x1a\xe6?'
p4456
tp4457
Rp4458
ag4
(g8
S'\xb4\x8e0a\xc6\xef\xf3?'
p4459
tp4460
Rp4461
ag4
(g8
S'B) \x13#0\xea?'
p4462
tp4463
Rp4464
ag4
(g8
S'+,\xe1\xa3\xc6\xbc\xee?'
p4465
tp4466
Rp4467
ag4
(g8
S'\x8d7A\\\x8f\xa1\xf3?'
p4468
tp4469
Rp4470
ag4
(g8
S'0\xbd\xec\xb1q\xfa\xee?'
p4471
tp4472
Rp4473
ag4
(g8
S'`m\\[\xe1\xbc\xeb?'
p4474
tp4475
Rp4476
ag4
(g8
S'z\x9d\xd9\xee\xda\xca\xf4?'
p4477
tp4478
Rp4479
ag4
(g8
S"wj\x8f'X\xed\xea?"
p4480
tp4481
Rp4482
ag4
(g8
S'\xe9\xe8\xac\xf9\\d\xec?'
p4483
tp4484
Rp4485
ag4
(g8
S'[\x95\xd5\\\x99\x7f\xeb?'
p4486
tp4487
Rp4488
ag4
(g8
S'\x17Lo@1?\xec?'
p4489
tp4490
Rp4491
ag4
(g8
S'qx\xa3u(\x16\xed?'
p4492
tp4493
Rp4494
ag4
(g8
S'\xaa\xde\xc9\xf0\xac?\xe9?'
p4495
tp4496
Rp4497
ag4
(g8
S'\x02\xf0\xde\xb0D\x87\xf0?'
p4498
tp4499
Rp4500
ag4
(g8
S'zQ\xd0\xe4\xd7/\xe6?'
p4501
tp4502
Rp4503
ag4
(g8
S'\xd1\x02xn\xfe\xa4\xec?'
p4504
tp4505
Rp4506
ag4
(g8
S'f1\xf7\x8dOr\xe9?'
p4507
tp4508
Rp4509
ag4
(g8
S'\x82\xb5\xf5\x82E\xdc\xed?'
p4510
tp4511
Rp4512
ag4
(g8
S'\x99%\xad\xa9\xf3;\xf0?'
p4513
tp4514
Rp4515
ag4
(g8
S'\x10\x8d\xf9\x05|\x01\xeb?'
p4516
tp4517
Rp4518
ag4
(g8
S'\xc0\xaa-\xdb\x81\xda\xe8?'
p4519
tp4520
Rp4521
ag4
(g8
S'\x93\xd0z\xa9\xae\xd5\xed?'
p4522
tp4523
Rp4524
ag4
(g8
S'9\x0f\xd6\xa0L\x83\xeb?'
p4525
tp4526
Rp4527
ag4
(g8
S'rw\xf6\x9bR\xf7\xe6?'
p4528
tp4529
Rp4530
ag4
(g8
S'\x8e1G{\x00\x9b\xf2?'
p4531
tp4532
Rp4533
ag4
(g8
S'\x80\xf0\xf2G\x9d\xe3\xf0?'
p4534
tp4535
Rp4536
ag4
(g8
S'$HOo6\xdf\xf1?'
p4537
tp4538
Rp4539
ag4
(g8
S'\x87\xca:s!\x8e\xf3?'
p4540
tp4541
Rp4542
ag4
(g8
S'\xce\x86Bn\x8b\x89\xec?'
p4543
tp4544
Rp4545
ag4
(g8
S'\x05\xa7\xb8\x10\xcd\x86\x0f@'
p4546
tp4547
Rp4548
ag4
(g8
S'\x8a\xf0\xc9O\x17\xeb\xe9?'
p4549
tp4550
Rp4551
ag4
(g8
S'OdZ\x85\xa1M\xec?'
p4552
tp4553
Rp4554
ag4
(g8
S'SET\x82\xc3\x18\xe7?'
p4555
tp4556
Rp4557
ag4
(g8
S'\xc2Z\x12%\xff\xb1\xfe?'
p4558
tp4559
Rp4560
ag4
(g8
S'i\xf5B\xd9rH\xeb?'
p4561
tp4562
Rp4563
ag4
(g8
S'\xbd\x07\xb8ST\x1c\xec?'
p4564
tp4565
Rp4566
ag4
(g8
S'82\x00bs\x94\xee?'
p4567
tp4568
Rp4569
ag4
(g8
S'RP\xcdc.Z\xeb?'
p4570
tp4571
Rp4572
ag4
(g8
S'\xb4A\xe8\xa8B2\xeb?'
p4573
tp4574
Rp4575
ag4
(g8
S'\xd7\xa6S\x9dD\xce\xe5?'
p4576
tp4577
Rp4578
ag4
(g8
S'\x0c \x844\xe6\xcf\xeb?'
p4579
tp4580
Rp4581
ag4
(g8
S'v\x88\xc1,F\x88\xe8?'
p4582
tp4583
Rp4584
ag4
(g8
S'\x0e\x06\xee\x15\xa0G\xf1?'
p4585
tp4586
Rp4587
ag4
(g8
S',\x89\xb9\x9f\x8cK\xeb?'
p4588
tp4589
Rp4590
ag4
(g8
S'\xc0\xb3_\xfd\x0f|\xf0?'
p4591
tp4592
Rp4593
ag4
(g8
S'N\t\x13\x12S\xf7\xe6?'
p4594
tp4595
Rp4596
ag4
(g8
S'1\x97\x9a\xc7\t\xa1\xe7?'
p4597
tp4598
Rp4599
ag4
(g8
S'\xfd\xd7\xf4\x9c5E\xe7?'
p4600
tp4601
Rp4602
ag4
(g8
S'EC\xae\xca\xbd\x11\xeb?'
p4603
tp4604
Rp4605
ag4
(g8
S'\x81\xec\xedE=\x8c\xf1?'
p4606
tp4607
Rp4608
ag4
(g8
S'}\x0b\x8c\xd1\x82\xf9\xed?'
p4609
tp4610
Rp4611
ag4
(g8
S'\x0e\xe7\x05F\xbb\x0e\xe8?'
p4612
tp4613
Rp4614
ag4
(g8
S'\x0e<h\xe5\x13\x8f\xf0?'
p4615
tp4616
Rp4617
ag4
(g8
S'\xb5\xf6\xc5\x06\xbc\x10\xeb?'
p4618
tp4619
Rp4620
ag4
(g8
S'\xf3\x9c\xd8<\xd1\x94\xe8?'
p4621
tp4622
Rp4623
ag4
(g8
S'%\xe2dw\xc1\x89\xf5?'
p4624
tp4625
Rp4626
ag4
(g8
S'3u\xdbu\x96L\xe9?'
p4627
tp4628
Rp4629
ag4
(g8
S'\x12\xd2\xe2\xea\xceB\xea?'
p4630
tp4631
Rp4632
ag4
(g8
S']\xbc\xce\r\xae\xff\xeb?'
p4633
tp4634
Rp4635
ag4
(g8
S'\xaffvo\x88\xd0\xe5?'
p4636
tp4637
Rp4638
ag4
(g8
S'\n\x8e\x02H\xb5\xae\xe7?'
p4639
tp4640
Rp4641
ag4
(g8
S'X3\xea\x11\xdbj\xe7?'
p4642
tp4643
Rp4644
ag4
(g8
S'\x8b\xb8^k7|\xf8?'
p4645
tp4646
Rp4647
ag4
(g8
S'\xf4{\xee:\xef\xef\xea?'
p4648
tp4649
Rp4650
ag4
(g8
S'\x13}^M\xbe.\xef?'
p4651
tp4652
Rp4653
ag4
(g8
S'\xc6\x15\xb3\xea\x94\xea\xf1?'
p4654
tp4655
Rp4656
ag4
(g8
S'\xd3\xf9\xb3\xa9`\xe3\xf3?'
p4657
tp4658
Rp4659
ag4
(g8
S'\x17\xc8\x08\x18_\xbc\xf1?'
p4660
tp4661
Rp4662
ag4
(g8
S'O\x84\xe1\x86\xfac\xec?'
p4663
tp4664
Rp4665
ag4
(g8
S'F\xfeg5$\r\xf1?'
p4666
tp4667
Rp4668
ag4
(g8
S'M\x7f\xd7\xfd\x1f\xc6\xf4?'
p4669
tp4670
Rp4671
ag4
(g8
S'!\xeb\xd2\xc7V\xfa\xed?'
p4672
tp4673
Rp4674
ag4
(g8
S'7\xa1\xa1J%\xea\xe6?'
p4675
tp4676
Rp4677
ag4
(g8
S'#Q\x81<\xba"\xf0?'
p4678
tp4679
Rp4680
ag4
(g8
S'\xfc)W\xea*a\xf3?'
p4681
tp4682
Rp4683
ag4
(g8
S'\t\xab\x17T\xf4&\x05@'
p4684
tp4685
Rp4686
ag4
(g8
S'\x01Z\xd6\x9a{\x95\xe8?'
p4687
tp4688
Rp4689
ag4
(g8
S'\x0b.vR\xf0\xce\xf0?'
p4690
tp4691
Rp4692
ag4
(g8
S'@\xc0\xb8\xd6P;\xe9?'
p4693
tp4694
Rp4695
ag4
(g8
S'\x13\x81\xd9\x88\xc2\xc4\xe9?'
p4696
tp4697
Rp4698
ag4
(g8
S'\x8fI\xd5\x9a+\xd7\xee?'
p4699
tp4700
Rp4701
ag4
(g8
S'\x8f\x8bp\xdd1"\xf1?'
p4702
tp4703
Rp4704
ag4
(g8
S'^\xbc\x17k\\)\xf8?'
p4705
tp4706
Rp4707
ag4
(g8
S'gNd\xf0lx\xed?'
p4708
tp4709
Rp4710
ag4
(g8
S'\xa0\x1a\xca\xb1\xdc\x16\xfb?'
p4711
tp4712
Rp4713
ag4
(g8
S',C\x11I\xee7\xed?'
p4714
tp4715
Rp4716
ag4
(g8
S'\xde6\x11\x1b\xde\x17\xf0?'
p4717
tp4718
Rp4719
ag4
(g8
S'\xe2\x1a6\xa2\x1a\xcf\xf0?'
p4720
tp4721
Rp4722
ag4
(g8
S'\xe5\xd9-U\x1f\xae\xf9?'
p4723
tp4724
Rp4725
ag4
(g8
S'\xbf\xf4U\xc7[_\xe9?'
p4726
tp4727
Rp4728
ag4
(g8
S'9\x1a5\xbe\x13\xf5\xf3?'
p4729
tp4730
Rp4731
ag4
(g8
S'\xb7\xa66\xa0\x1f,\xf2?'
p4732
tp4733
Rp4734
ag4
(g8
S'\x0f\x1a3\xe3\x8bo\xf3?'
p4735
tp4736
Rp4737
ag4
(g8
S'\x90/\xd1\x8e[\xb6\xf5?'
p4738
tp4739
Rp4740
ag4
(g8
S'\xbe\x8dd\xe88\xdf\xe8?'
p4741
tp4742
Rp4743
ag4
(g8
S'0\xc8\xc4\xfd.:\xe9?'
p4744
tp4745
Rp4746
ag4
(g8
S'tVZ\xbct\x0e\xee?'
p4747
tp4748
Rp4749
ag4
(g8
S'\xc16\xe1\x17r\x0b\xea?'
p4750
tp4751
Rp4752
ag4
(g8
S'\x8d\xb9\xe9\xa9\xc1\xed\xf5?'
p4753
tp4754
Rp4755
ag4
(g8
S'\x80\x8a\xb7:c\xe9\xe8?'
p4756
tp4757
Rp4758
ag4
(g8
S'\xcc\xbd\x0e\xeb\xbeJ\xef?'
p4759
tp4760
Rp4761
ag4
(g8
S'\xd3\xee\xde!\x88\xf7\xeb?'
p4762
tp4763
Rp4764
ag4
(g8
S'\xd8\x14\x10\xf0\xa0\x80\xec?'
p4765
tp4766
Rp4767
ag4
(g8
S'\x17\x98t\xa2\xf5;\xfb?'
p4768
tp4769
Rp4770
ag4
(g8
S'\xf5\x895UP\x90\xe8?'
p4771
tp4772
Rp4773
ag4
(g8
S'zM\x040\xb2\xbc\xf1?'
p4774
tp4775
Rp4776
ag4
(g8
S'\xd4\x1eg\xa9\xa5\x8c\xe8?'
p4777
tp4778
Rp4779
ag4
(g8
S'_5\xc0@}\x1b\xf1?'
p4780
tp4781
Rp4782
ag4
(g8
S'\xe9\x1f&0\xfd{\xf5?'
p4783
tp4784
Rp4785
ag4
(g8
S'L\\\xa0]\xb86\xf5?'
p4786
tp4787
Rp4788
ag4
(g8
S'\x7f\x86N\xcd\xb5U\x01@'
p4789
tp4790
Rp4791
ag4
(g8
S'\xa3Xn\x85\xe1\xd1\xeb?'
p4792
tp4793
Rp4794
ag4
(g8
S'\xc12^z\x01\xf8\xeb?'
p4795
tp4796
Rp4797
ag4
(g8
S';\x13!\x8f\xf6r\xf7?'
p4798
tp4799
Rp4800
ag4
(g8
S'v\xb8\x18\xaaN\x86\xed?'
p4801
tp4802
Rp4803
ag4
(g8
S'H\xdf\xd3\x9b\x97\xd6\xf3?'
p4804
tp4805
Rp4806
ag4
(g8
S't\xacI\xdcf\x9a\xec?'
p4807
tp4808
Rp4809
ag4
(g8
S'U!\xd2\x9d\x19\x05\xeb?'
p4810
tp4811
Rp4812
ag4
(g8
S"\x04\x08\xde\xee'\x0f\xef?"
p4813
tp4814
Rp4815
ag4
(g8
S'\xce>8\xc9\xb6Q\xeb?'
p4816
tp4817
Rp4818
ag4
(g8
S'\xd8\x9fr\x94\x12\\\xea?'
p4819
tp4820
Rp4821
ag4
(g8
S'\x86Q&\xa9\xc2\xf3\xf2?'
p4822
tp4823
Rp4824
ag4
(g8
S'\xab\x81\xd5\x81\x04\xf6\xf2?'
p4825
tp4826
Rp4827
ag4
(g8
S'\xd9\xc2\x7f|\xea}\xef?'
p4828
tp4829
Rp4830
ag4
(g8
S':\xa4\x07\xad9\x0f\xed?'
p4831
tp4832
Rp4833
ag4
(g8
S'\xd7"\x85\xd9\x84\xe5\xe8?'
p4834
tp4835
Rp4836
ag4
(g8
S'\xf9O\xb5\x8b\x0b\x8e\xea?'
p4837
tp4838
Rp4839
ag4
(g8
S'\xc4\x1b\x00\xa0K#\xed?'
p4840
tp4841
Rp4842
ag4
(g8
S'\xce\xadI\xd8f\x0b\xe8?'
p4843
tp4844
Rp4845
ag4
(g8
S'+\x88\xf4<\x99\x8a\xef?'
p4846
tp4847
Rp4848
ag4
(g8
S'\xa7Fm,\xb2V\xe8?'
p4849
tp4850
Rp4851
ag4
(g8
S'\xf9\xb6\xc6\xf5\xf3\xb1\x12@'
p4852
tp4853
Rp4854
ag4
(g8
S'`\x1be\x89\x9eP\xe7?'
p4855
tp4856
Rp4857
ag4
(g8
S'I\xf76\x0e\xd66\xe8?'
p4858
tp4859
Rp4860
ag4
(g8
S'[K\x8f\xb0\xc2\xcb\xf0?'
p4861
tp4862
Rp4863
ag4
(g8
S'#\x0bN\x16=?\xf7?'
p4864
tp4865
Rp4866
ag4
(g8
S'\xd5\x1d"\xa4\x10o\xed?'
p4867
tp4868
Rp4869
ag4
(g8
S'\x97\xb1\xd8}\\q\xf0?'
p4870
tp4871
Rp4872
ag4
(g8
S'"\xe7}\xd0\xce\x95\xef?'
p4873
tp4874
Rp4875
ag4
(g8
S'R\xe1\xd9\x83\x9d\xc1\xe8?'
p4876
tp4877
Rp4878
ag4
(g8
S'\x1e\xb0\x80tX\x00\xf1?'
p4879
tp4880
Rp4881
ag4
(g8
S'\xdd\xbe\xd9\xc9\xa8L\xe9?'
p4882
tp4883
Rp4884
ag4
(g8
S'\xa4Jy\x016>\xec?'
p4885
tp4886
Rp4887
ag4
(g8
S'\xee\x01>\\}\xa9\xec?'
p4888
tp4889
Rp4890
ag4
(g8
S'\x98\xbbxtY\xd2\xea?'
p4891
tp4892
Rp4893
ag4
(g8
S'\x90\x1d\xc0\x95\xcb\xd3\xed?'
p4894
tp4895
Rp4896
ag4
(g8
S's\xecd\xa0\x998\x03@'
p4897
tp4898
Rp4899
ag4
(g8
S'~\xc7\x86EZ\xfe\xe8?'
p4900
tp4901
Rp4902
ag4
(g8
S'\xd2`\x0e\xd3F\xf0\xec?'
p4903
tp4904
Rp4905
ag4
(g8
S'1\xbfv\x1b\x87\x1a\xe9?'
p4906
tp4907
Rp4908
ag4
(g8
S'\xbb\xfa\xd7\xf3\xae\x0e\xf0?'
p4909
tp4910
Rp4911
ag4
(g8
S"'\xf3\xad\x87\xa9\x15\xf0?"
p4912
tp4913
Rp4914
ag4
(g8
S'"\xfe\xdd\xd3\x89O\xed?'
p4915
tp4916
Rp4917
ag4
(g8
S'\x11\xde\x80\xc6\xdb\xab\xfd?'
p4918
tp4919
Rp4920
ag4
(g8
S'\x9bM\x84\xee\xd7\x13\xeb?'
p4921
tp4922
Rp4923
ag4
(g8
S'\xe2\xf1&\x13\xf6\xe4\xe9?'
p4924
tp4925
Rp4926
ag4
(g8
S'\xb8\x1a\xb5\xf6*\xe2\xf0?'
p4927
tp4928
Rp4929
ag4
(g8
S'\x9edE1n\x83\xed?'
p4930
tp4931
Rp4932
ag4
(g8
S'\xe2k\xe1\x1a\xdf\x94\xf1?'
p4933
tp4934
Rp4935
ag4
(g8
S'\xe1\r\xe5\xf1\xc24\xe7?'
p4936
tp4937
Rp4938
ag4
(g8
S'\xa0j\x17\xe1z\xcc\xef?'
p4939
tp4940
Rp4941
ag4
(g8
S'2\x0b\xb5\x17\xd8\x12\xea?'
p4942
tp4943
Rp4944
ag4
(g8
S'\xa0\xb6\x92F\x97J\xe9?'
p4945
tp4946
Rp4947
ag4
(g8
S'\xd4xh\xdem\r\xea?'
p4948
tp4949
Rp4950
ag4
(g8
S'\xd0I\x897k`\xea?'
p4951
tp4952
Rp4953
ag4
(g8
S'\xb5$x\xc5\xa3\xc3\xf1?'
p4954
tp4955
Rp4956
ag4
(g8
S'\x99\xe6\\\xb5\xd02\xef?'
p4957
tp4958
Rp4959
ag4
(g8
S')\xc1\xc3+\xb6\t\xec?'
p4960
tp4961
Rp4962
ag4
(g8
S'\xa3f\xa2w\t}\xe8?'
p4963
tp4964
Rp4965
ag4
(g8
S'j\t\xc4\x06\x1e2\xea?'
p4966
tp4967
Rp4968
ag4
(g8
S'pv\xce:(\xae\xf3?'
p4969
tp4970
Rp4971
ag4
(g8
S'\x14\x7f<IQv\xe7?'
p4972
tp4973
Rp4974
ag4
(g8
S'B\x9fb\x9e\xf2\x94\xf6?'
p4975
tp4976
Rp4977
ag4
(g8
S'\xd7^\x91$\xa6\xcc\xec?'
p4978
tp4979
Rp4980
ag4
(g8
S'\xd5\xde\xb9\xb7Lx\xea?'
p4981
tp4982
Rp4983
ag4
(g8
S'\xeb_\x8bY\xe5\xbe\r@'
p4984
tp4985
Rp4986
ag4
(g8
S'\x12\xf7\xae\x19U\xc8\xea?'
p4987
tp4988
Rp4989
ag4
(g8
S' \x0e\xb3\x0b>\x9d\xea?'
p4990
tp4991
Rp4992
ag4
(g8
S'\x19\x87\xaa\x1d\xcd{\xea?'
p4993
tp4994
Rp4995
ag4
(g8
S'\x86d\x81\x1b[\x03\xe9?'
p4996
tp4997
Rp4998
ag4
(g8
S'9tP\xc8\x81\xc1\x0c@'
p4999
tp5000
Rp5001
ag4
(g8
S'\x1b\xc2\x1b5\x87\x0b\xf3?'
p5002
tp5003
Rp5004
ag4
(g8
S'~\x17\x10\xbb1\xfe\xe4?'
p5005
tp5006
Rp5007
ag4
(g8
S'C\x13\x0f\x11\xbb\x04\xf4?'
p5008
tp5009
Rp5010
ag4
(g8
S'\xa7\xf0\xd0=\xf4p\xf5?'
p5011
tp5012
Rp5013
ag4
(g8
S'\xa6OU \xbb\xf4\xee?'
p5014
tp5015
Rp5016
ag4
(g8
S'S\xe8\x83ub\x98\xe9?'
p5017
tp5018
Rp5019
ag4
(g8
S'\x88\xf6\x17u\x8c\x02\xe9?'
p5020
tp5021
Rp5022
ag4
(g8
S'\xae\xf7\x9d\xcb^\x80\xf0?'
p5023
tp5024
Rp5025
ag4
(g8
S'\x07Nn;!\xa3\xf3?'
p5026
tp5027
Rp5028
ag4
(g8
S'\x16uA\xc2\xe8F\xed?'
p5029
tp5030
Rp5031
ag4
(g8
S'\xf2[\xf7\xc5^\x13\xea?'
p5032
tp5033
Rp5034
ag4
(g8
S"d\x8d\x95'\x18]\xee?"
p5035
tp5036
Rp5037
ag4
(g8
S'vz<,!\x11\xeb?'
p5038
tp5039
Rp5040
ag4
(g8
S'\xf4Y\xc6\xe2}\xaf\xf1?'
p5041
tp5042
Rp5043
ag4
(g8
S'\xfd\xd7\x81\x82n\x10\xe9?'
p5044
tp5045
Rp5046
ag4
(g8
S'\x7f\xf8z+\xcd\xb4\xe6?'
p5047
tp5048
Rp5049
ag4
(g8
S'\xa1\xdc\x90\xa6\xce\x1f\xee?'
p5050
tp5051
Rp5052
ag4
(g8
S'\x94>\x1fVg\x02\xe8?'
p5053
tp5054
Rp5055
ag4
(g8
S'\x1d\x04\xc31_b\xe9?'
p5056
tp5057
Rp5058
ag4
(g8
S'4\xb2\xc2\x06\x9d\x95\xea?'
p5059
tp5060
Rp5061
ag4
(g8
S'\xa4H\xcd\x04\xc7I\xee?'
p5062
tp5063
Rp5064
ag4
(g8
S'7\xb5^B\xe7\xf4\xeb?'
p5065
tp5066
Rp5067
ag4
(g8
S'.\x0cau*4\xe9?'
p5068
tp5069
Rp5070
ag4
(g8
S'\x17\x001Kv`\xe7?'
p5071
tp5072
Rp5073
ag4
(g8
S'\xe6^\x8aV\x98]\xf3?'
p5074
tp5075
Rp5076
ag4
(g8
S'\xcc\xb6\x02h\t\x07\xe8?'
p5077
tp5078
Rp5079
ag4
(g8
S'4H;m\x98\x12\xea?'
p5080
tp5081
Rp5082
ag4
(g8
S'<\x1f\xad\xdb\x0br\xeb?'
p5083
tp5084
Rp5085
ag4
(g8
S'\x94MR\xe2\x82\x85\xea?'
p5086
tp5087
Rp5088
ag4
(g8
S'\xf2 \x11z\xda\x9c\xea?'
p5089
tp5090
Rp5091
ag4
(g8
S'=\xabE\x8fJ%\xe8?'
p5092
tp5093
Rp5094
ag4
(g8
S'\x13\xf0\x01\x8e\xbb\xf8\xea?'
p5095
tp5096
Rp5097
ag4
(g8
S'\xf2\xf9\xee+\x99-\xec?'
p5098
tp5099
Rp5100
ag4
(g8
S'\x1c\xd4$\x12\xba\xce\xea?'
p5101
tp5102
Rp5103
ag4
(g8
S'b\xba\xc1\xf1\xc5\xbb\x01@'
p5104
tp5105
Rp5106
ag4
(g8
S'Y\xdd\xaf|W\x1a\xed?'
p5107
tp5108
Rp5109
ag4
(g8
S'VtQ@\x13\r\xea?'
p5110
tp5111
Rp5112
ag4
(g8
S'\x06})\x8d\xf0A\xf1?'
p5113
tp5114
Rp5115
ag4
(g8
S'\xab\xfah\xac\xd1\x89\xf0?'
p5116
tp5117
Rp5118
ag4
(g8
S'k3H\x97\x83\x05\xf5?'
p5119
tp5120
Rp5121
ag4
(g8
S'\xd7\xac\x89\x13B\xb1\xe6?'
p5122
tp5123
Rp5124
ag4
(g8
S'35\x83!\xcfl\xf6?'
p5125
tp5126
Rp5127
ag4
(g8
S'GYgZJ9\xe8?'
p5128
tp5129
Rp5130
ag4
(g8
S'\x8fD\xbb\x19>\x08\xec?'
p5131
tp5132
Rp5133
ag4
(g8
S'\x80\xb9\xdd\x16\xb6f\xea?'
p5134
tp5135
Rp5136
ag4
(g8
S'J\xf0a\xc5_\xe1\xea?'
p5137
tp5138
Rp5139
ag4
(g8
S'}d\xe3\xdc\xde9\xf2?'
p5140
tp5141
Rp5142
ag4
(g8
S'\x15B\x1d\xcf\xc6\xba\x15@'
p5143
tp5144
Rp5145
ag4
(g8
S'\xf8#\x0c\x88\x98\xf9\xe6?'
p5146
tp5147
Rp5148
ag4
(g8
S'd\x84\x84\xfft\x81\xfd?'
p5149
tp5150
Rp5151
ag4
(g8
S'I\xfe\xe3\xbb\x1er\xec?'
p5152
tp5153
Rp5154
ag4
(g8
S'2\xd7\x85~\xf8\xe2\xe9?'
p5155
tp5156
Rp5157
ag4
(g8
S'\xa8\xf7\\\xb6\x16\xbd\xeb?'
p5158
tp5159
Rp5160
ag4
(g8
S'\x84\x01#q\xb0%\xe6?'
p5161
tp5162
Rp5163
ag4
(g8
S'\xfb\xae\xf0\xcb\xa44\xe7?'
p5164
tp5165
Rp5166
ag4
(g8
S'\xe7K|N\x15j\xf4?'
p5167
tp5168
Rp5169
ag4
(g8
S'\x07\xd9i\x1a\xf4\xa1\xea?'
p5170
tp5171
Rp5172
ag4
(g8
S'mj\xafi\x83C\xe8?'
p5173
tp5174
Rp5175
ag4
(g8
S'\n\xbd\x95\xc6\x13\x90\xe9?'
p5176
tp5177
Rp5178
ag4
(g8
S' F\n\x8f\n\xa3\xef?'
p5179
tp5180
Rp5181
ag4
(g8
S'\x9e1\xaf\xef\xb5\xce\xea?'
p5182
tp5183
Rp5184
ag4
(g8
S'g\x8c\xb8\x93A\xf4\xef?'
p5185
tp5186
Rp5187
ag4
(g8
S'\x89\xcd\xdd\x1f\xafJ\xeb?'
p5188
tp5189
Rp5190
ag4
(g8
S'E\x07\nK5\xf1\xef?'
p5191
tp5192
Rp5193
ag4
(g8
S'=\x06r\x1f\x96\xfd\xed?'
p5194
tp5195
Rp5196
ag4
(g8
S'\x97Rv\\\x14\x13\xfc?'
p5197
tp5198
Rp5199
ag4
(g8
S'\xf4k#\x95g3\xe9?'
p5200
tp5201
Rp5202
ag4
(g8
S'iw\xd3\xc7\x0c\xe5\xea?'
p5203
tp5204
Rp5205
ag4
(g8
S'\x0cv\x9f\x1eM\x18\xec?'
p5206
tp5207
Rp5208
ag4
(g8
S'\xf5\x82\xf4)R\xa4\xed?'
p5209
tp5210
Rp5211
ag4
(g8
S'\x8e\xbd\x13\x94\x04\x98\xe9?'
p5212
tp5213
Rp5214
ag4
(g8
S'Ht\x9el\x07\x97\xfe?'
p5215
tp5216
Rp5217
ag4
(g8
S'n\xd0\xd6P\xd1\xff\xed?'
p5218
tp5219
Rp5220
ag4
(g8
S'\x01\tg\x80T\xa8\xf4?'
p5221
tp5222
Rp5223
ag4
(g8
S'\x19\xaa\xd4ri\xf0\xed?'
p5224
tp5225
Rp5226
ag4
(g8
S'\xaa\xd2\xcf\x91\x8c\x14\xed?'
p5227
tp5228
Rp5229
ag4
(g8
S'\x87,\x88e~A\xe8?'
p5230
tp5231
Rp5232
ag4
(g8
S'k\x1b=\xee\xaal\xf1?'
p5233
tp5234
Rp5235
ag4
(g8
S'0\xdd-\xa7\xeb\xf8\xeb?'
p5236
tp5237
Rp5238
ag4
(g8
S"-\x04'\xef\xdf\x92\xeb?"
p5239
tp5240
Rp5241
ag4
(g8
S'\x8a8\x19\x80\xf1i\xeb?'
p5242
tp5243
Rp5244
ag4
(g8
S'6\x80@\x9dO\x18\xf3?'
p5245
tp5246
Rp5247
ag4
(g8
S'?\xeay]96\xf1?'
p5248
tp5249
Rp5250
ag4
(g8
S'\x87!G\xe7\x9b\xad\xea?'
p5251
tp5252
Rp5253
ag4
(g8
S')%o\xa6\xcfh\xe7?'
p5254
tp5255
Rp5256
ag4
(g8
S'5\x9e\xa2;\x10\xd8\xe8?'
p5257
tp5258
Rp5259
ag4
(g8
S'UM\xc5\xb9\xe41\xf1?'
p5260
tp5261
Rp5262
ag4
(g8
S'`g\xcaoFD\xec?'
p5263
tp5264
Rp5265
ag4
(g8
S'-e\xf1\\x\xe2\xec?'
p5266
tp5267
Rp5268
ag4
(g8
S'k\xaa\x0c\xb0e\x8f\xe5?'
p5269
tp5270
Rp5271
ag4
(g8
S'\xd9\xbd\x9f\xb9\xb3\xac\xea?'
p5272
tp5273
Rp5274
ag4
(g8
S'V\xdf\x8d\x8c9\xdf\xeb?'
p5275
tp5276
Rp5277
ag4
(g8
S'G\x19\xa9\xa1\xdf:\xf0?'
p5278
tp5279
Rp5280
ag4
(g8
S'\xac\xf0\x07\xbcC\x86\xef?'
p5281
tp5282
Rp5283
ag4
(g8
S'`\xee\xe6\x01K:\xf4?'
p5284
tp5285
Rp5286
ag4
(g8
S'\xa5/\x84\xd2_y\xf1?'
p5287
tp5288
Rp5289
ag4
(g8
S'\xcf\x94\xf7\x1c\xabC\xf1?'
p5290
tp5291
Rp5292
ag4
(g8
S'\xd3\x98\xc7\x80\xe5:\xf1?'
p5293
tp5294
Rp5295
ag4
(g8
S'\xda\x01g\xbcw\x81\xe9?'
p5296
tp5297
Rp5298
ag4
(g8
S'\xf3\xcc\x18 :L\xeb?'
p5299
tp5300
Rp5301
ag4
(g8
S'\xa4J,-\x9aW\xe9?'
p5302
tp5303
Rp5304
ag4
(g8
S"\x9b\x16'\xec\xfe\xe2\xea?"
p5305
tp5306
Rp5307
ag4
(g8
S'.3\xb2\xfa\xfc\t\xed?'
p5308
tp5309
Rp5310
ag4
(g8
S'\x16\xea\xd1(\x04\xe6\xeb?'
p5311
tp5312
Rp5313
ag4
(g8
S'\xeeM\xa8\x0b\xccT\xee?'
p5314
tp5315
Rp5316
ag4
(g8
S'\xc9Z\xf6\x07\xcb,\xf2?'
p5317
tp5318
Rp5319
ag4
(g8
S'\xa1\xc5b\xe2\x86\xf8\xe9?'
p5320
tp5321
Rp5322
ag4
(g8
S'\xc2\xb9%.h\xa9\xe9?'
p5323
tp5324
Rp5325
ag4
(g8
S'\x92\xdcp\xb1\xf5\xc1\xea?'
p5326
tp5327
Rp5328
ag4
(g8
S'\t\x91x\xa1s\x96\xea?'
p5329
tp5330
Rp5331
ag4
(g8
S'\xb8\xd59\xcb2!\xe8?'
p5332
tp5333
Rp5334
ag4
(g8
S';\x9eP\x05\xdd\xba\xec?'
p5335
tp5336
Rp5337
ag4
(g8
S'n\xcb\x8e\xf7A\n\xe9?'
p5338
tp5339
Rp5340
ag4
(g8
S'\xef;\xae\xed 6\xfa?'
p5341
tp5342
Rp5343
ag4
(g8
S'S\x04\xb9z\x17\x7f\xee?'
p5344
tp5345
Rp5346
ag4
(g8
S'\r\xbb&\xdeA\xc4\xec?'
p5347
tp5348
Rp5349
ag4
(g8
S'$\x97d\x9a\x98\xf6\xf2?'
p5350
tp5351
Rp5352
ag4
(g8
S'g\xad\x94\xf6\xa7\x19\xf1?'
p5353
tp5354
Rp5355
ag4
(g8
S'O"2\xcf\x19j\xf2?'
p5356
tp5357
Rp5358
ag4
(g8
S'U>\xee\x08\xbb\x0c\xf0?'
p5359
tp5360
Rp5361
ag4
(g8
S'xw\xc9o\xcd\x84\xe6?'
p5362
tp5363
Rp5364
ag4
(g8
S'\x19\x1d\xe5\xa1\x14\x14\xe8?'
p5365
tp5366
Rp5367
ag4
(g8
S'%\x880\xbbH\x9d\xf1?'
p5368
tp5369
Rp5370
ag4
(g8
S'\xf8\xdd\xd6\xece\xc7\xe9?'
p5371
tp5372
Rp5373
ag4
(g8
S'y/r\xda\xc1T\xf3?'
p5374
tp5375
Rp5376
ag4
(g8
S'\xb9gD\xb9\xe2\xa7\xeb?'
p5377
tp5378
Rp5379
ag4
(g8
S'\xda\xd0+\xba\x03\xb0\xec?'
p5380
tp5381
Rp5382
ag4
(g8
S'\x1d\x98\xc3V\xcb\xd5\xef?'
p5383
tp5384
Rp5385
ag4
(g8
S'\xf3$\xcf\xb8\xac\x89\xf5?'
p5386
tp5387
Rp5388
ag4
(g8
S'\xb9\xe3\x80\x93\xd8\xcf\xe8?'
p5389
tp5390
Rp5391
ag4
(g8
S'O;\x8dc\x06Y\xeb?'
p5392
tp5393
Rp5394
ag4
(g8
S'b\x92!@\x07o\xf0?'
p5395
tp5396
Rp5397
ag4
(g8
S'\x83\xd6\x15\x1c\xe0\xa9\xec?'
p5398
tp5399
Rp5400
ag4
(g8
S'\xd5\xfa\x02\xfb\x1e\x93\xf1?'
p5401
tp5402
Rp5403
ag4
(g8
S'\x9fY\xac\xeb\xbat\xec?'
p5404
tp5405
Rp5406
ag4
(g8
S';\x0b&\xb1Q\x81\xf5?'
p5407
tp5408
Rp5409
ag4
(g8
S'\xf7\xe1\xa3\xee(\x9c\xea?'
p5410
tp5411
Rp5412
ag4
(g8
S'\xea\x9a\xd41\xbc\xb5\xd8?'
p5413
tp5414
Rp5415
ag4
(g8
S'\xae\x07\x84V\xda\xb2\xe9?'
p5416
tp5417
Rp5418
ag4
(g8
S'k\x82\xf1\xf0\xc9\xa3\xe5?'
p5419
tp5420
Rp5421
ag4
(g8
S'C\x7fH\x08R!\xef?'
p5422
tp5423
Rp5424
ag4
(g8
S'\xe6\x13\xcb"\xeeM\xe1?'
p5425
tp5426
Rp5427
ag4
(g8
S'@;\x12\xd4R\x99\xea?'
p5428
tp5429
Rp5430
ag4
(g8
S'1T\x99\x01`\xac\xe9?'
p5431
tp5432
Rp5433
ag4
(g8
S'\xc5\xb0\xe21\x88\x93\xe6?'
p5434
tp5435
Rp5436
ag4
(g8
S'\xc3\xa0ZT\xa5u\x05@'
p5437
tp5438
Rp5439
ag4
(g8
S'\xc4\xe1\xe5\x92e\xfb\xea?'
p5440
tp5441
Rp5442
ag4
(g8
S'\x8c\xb3\x99\xf3R\xea\xe9?'
p5443
tp5444
Rp5445
ag4
(g8
S'\x9c\xdf\xbb\xec\xf3w\xed?'
p5446
tp5447
Rp5448
ag4
(g8
S'\x9f\x12^@l^\xf5?'
p5449
tp5450
Rp5451
ag4
(g8
S'\xb11\x18Lm\x8c\xe6?'
p5452
tp5453
Rp5454
ag4
(g8
S'\x85o\xa8\x00VW\xf3?'
p5455
tp5456
Rp5457
ag4
(g8
S'\x1d\xe9-\xd0\xd7r\xe7?'
p5458
tp5459
Rp5460
ag4
(g8
S'\xadO\xb7\xdc\xe4\xd7\xdc?'
p5461
tp5462
Rp5463
ag4
(g8
S'\xf0\x1bF\x7f\xfff\xfa?'
p5464
tp5465
Rp5466
ag4
(g8
S'm\x9a\x1dn`\x11\xf1?'
p5467
tp5468
Rp5469
ag4
(g8
S'\xcc\xf6l\xcd\xafG\x05@'
p5470
tp5471
Rp5472
ag4
(g8
S'q\xabG\xb4\xd9r\xe1?'
p5473
tp5474
Rp5475
ag4
(g8
S'\xab\xdf\xc8\xda\xdf\xa9\xe8?'
p5476
tp5477
Rp5478
ag4
(g8
S'\xa55)\xc4\xd71\xed?'
p5479
tp5480
Rp5481
ag4
(g8
S'\xaa,\xbe\xc0b\xe9\xf0?'
p5482
tp5483
Rp5484
ag4
(g8
S"r\x0c\xcd\x82\x1d'\xe0?"
p5485
tp5486
Rp5487
ag4
(g8
S'\x7f\xcb6a\xa2[\xed?'
p5488
tp5489
Rp5490
ag4
(g8
S'\t\xd1S\x04\xeb\xc7\xea?'
p5491
tp5492
Rp5493
ag4
(g8
S'E\x0e\x01\xaf\xde\x0e\xf0?'
p5494
tp5495
Rp5496
ag4
(g8
S'3\x00LQc\xe2\x05@'
p5497
tp5498
Rp5499
ag4
(g8
S'3Y\xb1\xc290\xe7?'
p5500
tp5501
Rp5502
ag4
(g8
S'\r["\xc0\xd2\xed\xe5?'
p5503
tp5504
Rp5505
ag4
(g8
S'\xa08\xa8\xb6\xebw\xf6?'
p5506
tp5507
Rp5508
ag4
(g8
S'\xd1\xab1>\x08\xad\xef?'
p5509
tp5510
Rp5511
ag4
(g8
S'\x13vMBY\x10\xef?'
p5512
tp5513
Rp5514
ag4
(g8
S'\xad\x18?\xc8\x82\xfb\xf4?'
p5515
tp5516
Rp5517
ag4
(g8
S'h\xdf\xeb^\xd6\x02\xea?'
p5518
tp5519
Rp5520
ag4
(g8
S'&{\x14\xf4\x90h\xe9?'
p5521
tp5522
Rp5523
ag4
(g8
S'\x05\xf96R\xd3Y\xeb?'
p5524
tp5525
Rp5526
ag4
(g8
S'b\xa4\x06Z\x9d\x88\xf2?'
p5527
tp5528
Rp5529
ag4
(g8
S'\x12w\x077_\xe7\xf0?'
p5530
tp5531
Rp5532
ag4
(g8
S'T-\xecC$.\xda?'
p5533
tp5534
Rp5535
ag4
(g8
S'\xf2\xcew/\xfc\x0e\xe7?'
p5536
tp5537
Rp5538
ag4
(g8
S'\x1ej\x82D\xfex\xe6?'
p5539
tp5540
Rp5541
ag4
(g8
S'\x18\xd8/]\xd5\t\xf3?'
p5542
tp5543
Rp5544
ag4
(g8
S'\x80\xa8l\x0fK\x0b\xf5?'
p5545
tp5546
Rp5547
ag4
(g8
S'\x15&y\xc8U\xf4\xeb?'
p5548
tp5549
Rp5550
ag4
(g8
S'\x9e\xe7U\x9f\x16\xed\xef?'
p5551
tp5552
Rp5553
ag4
(g8
S'NN\xcdf\xad\xba\xe7?'
p5554
tp5555
Rp5556
ag4
(g8
S'\xcc\x1b\xb3\xb4\x1cA\xe3?'
p5557
tp5558
Rp5559
ag4
(g8
S'\xea\xa8$q\xd7q\xf3?'
p5560
tp5561
Rp5562
ag4
(g8
S'KO\xe96xF\xec?'
p5563
tp5564
Rp5565
ag4
(g8
S'\x81\t\x0f\xde(.\xe9?'
p5566
tp5567
Rp5568
ag4
(g8
S'xdB\xad\xfd\xe8\xef?'
p5569
tp5570
Rp5571
ag4
(g8
S'\xda\xca=\x83j\x16\xe9?'
p5572
tp5573
Rp5574
ag4
(g8
S'\x1c\x8e\xad\xd5\xa6\xcc\xec?'
p5575
tp5576
Rp5577
ag4
(g8
S't!\xfeK\xe3\xbb\xf1?'
p5578
tp5579
Rp5580
ag4
(g8
S'\xff\xc0\x15{\xe8\xd7\x05@'
p5581
tp5582
Rp5583
ag4
(g8
S'\x8f+\x1b\n\x05c\xe9?'
p5584
tp5585
Rp5586
ag4
(g8
S'-\xc2\x94\x0c\xfaR\xea?'
p5587
tp5588
Rp5589
ag4
(g8
S'\x85Y\xcb\x8bB\xaa\xf5?'
p5590
tp5591
Rp5592
ag4
(g8
S'p\xf2q`\xc0%\x03@'
p5593
tp5594
Rp5595
ag4
(g8
S'l5\xe2\xbb\xef0\xeb?'
p5596
tp5597
Rp5598
ag4
(g8
S'\xebQ\xe5\xc9@\xf4\xea?'
p5599
tp5600
Rp5601
ag4
(g8
S'\xe9{w\x82r\x14\xf0?'
p5602
tp5603
Rp5604
ag4
(g8
S'\r=\xbd\xfa\xfb\xcd\xec?'
p5605
tp5606
Rp5607
ag4
(g8
S'\x86\xd4-\xcex\xe3\xf1?'
p5608
tp5609
Rp5610
ag4
(g8
S'\x1b\x00\x88\xbc\xfdU\xeb?'
p5611
tp5612
Rp5613
ag4
(g8
S'\x8ef\x10I\xc5\xd8\xe7?'
p5614
tp5615
Rp5616
ag4
(g8
S'\xe7t\xa0\x9d\xeb\x12\xe1?'
p5617
tp5618
Rp5619
ag4
(g8
S'\xcc\xb6\x84O\x05\xad\xf2?'
p5620
tp5621
Rp5622
ag4
(g8
S'nX\xd0j\x7f\x8a\xe5?'
p5623
tp5624
Rp5625
ag4
(g8
S'\x90R\xc7=\xd6\x1c\x1a@'
p5626
tp5627
Rp5628
ag4
(g8
S'7MA/\xb4\xc1\xcb?'
p5629
tp5630
Rp5631
ag4
(g8
S'\x84k\xe8\x1d\x86)\xe8?'
p5632
tp5633
Rp5634
ag4
(g8
S'\xce\x13\xd9\x1ba\xe8\xf4?'
p5635
tp5636
Rp5637
ag4
(g8
S'^^o\x87\xf5)\xef?'
p5638
tp5639
Rp5640
ag4
(g8
S'\\&\xc1\xd4:9\xe1?'
p5641
tp5642
Rp5643
ag4
(g8
S'|\xf1\x11^\xe7\x19\xf0?'
p5644
tp5645
Rp5646
ag4
(g8
S'\xd5\xcd\xf1:\x12X\x00@'
p5647
tp5648
Rp5649
ag4
(g8
S'\x90\xcf\x1e\xd0L\x90\xeb?'
p5650
tp5651
Rp5652
ag4
(g8
S'\x0cwe\xd9\xc8\x85\xf1?'
p5653
tp5654
Rp5655
ag4
(g8
S'E\xde\xc7o\x01\xc4\xe7?'
p5656
tp5657
Rp5658
ag4
(g8
S':\xe3\xc5\xea\xf7I\xe7?'
p5659
tp5660
Rp5661
ag4
(g8
S'\x86\x1b\xa9_\x91\xcd\xea?'
p5662
tp5663
Rp5664
ag4
(g8
S'\xad\xce\x02\xe3F\x0c\xf8?'
p5665
tp5666
Rp5667
ag4
(g8
S'<\x13\xa1G*\xc1\xf2?'
p5668
tp5669
Rp5670
ag4
(g8
S'\xd3T\xe0\xc3\x90\xcd\xeb?'
p5671
tp5672
Rp5673
ag4
(g8
S'\x14f6t\xaa]\xeb?'
p5674
tp5675
Rp5676
ag4
(g8
S'\xa1M!6\x94\x80\xe2?'
p5677
tp5678
Rp5679
ag4
(g8
S'\xa3Uq\x92><\xe3?'
p5680
tp5681
Rp5682
ag4
(g8
S'`\xfbMl\xa0\\\xfa?'
p5683
tp5684
Rp5685
ag4
(g8
S'x\xe6\xca\xd6\x12\xdc\xe4?'
p5686
tp5687
Rp5688
ag4
(g8
S' \x0f\x19<F\xc5\xf2?'
p5689
tp5690
Rp5691
ag4
(g8
S'Zp+j\\\xce\xe8?'
p5692
tp5693
Rp5694
ag4
(g8
S'i\x0fm\xe0Z\xbf\xf0?'
p5695
tp5696
Rp5697
ag4
(g8
S'\x8bR\xc5z\xb6\xb0\xfc?'
p5698
tp5699
Rp5700
ag4
(g8
S'\xfc\x84\xe3qs\xee\xf4?'
p5701
tp5702
Rp5703
ag4
(g8
S'\xb1\xb8\xdc\x1c\x96\xcd\xf3?'
p5704
tp5705
Rp5706
ag4
(g8
S'\xd9\xec\x03\r\x02\xad\xe7?'
p5707
tp5708
Rp5709
ag4
(g8
S'\xa2\x9a"~\xe1\xa7\xf0?'
p5710
tp5711
Rp5712
ag4
(g8
S'H\xf4\xe5\xa7\xd62\xe2?'
p5713
tp5714
Rp5715
ag4
(g8
S'\x99<P\x99\xab\x1e\x0f@'
p5716
tp5717
Rp5718
ag4
(g8
S'\xbc\xae\x19\x0c\x07\x8f\xe9?'
p5719
tp5720
Rp5721
ag4
(g8
S'\x18E\x9d\xae7\x1d\xe2?'
p5722
tp5723
Rp5724
ag4
(g8
S'\x07ELH>\x9a\xe1?'
p5725
tp5726
Rp5727
ag4
(g8
S'\xfc\xa6\xb6T\x98v\xed?'
p5728
tp5729
Rp5730
ag4
(g8
S'LCk\xa2\xd7)\xe9?'
p5731
tp5732
Rp5733
ag4
(g8
S'e\xac!\xa3\x9b3\xe8?'
p5734
tp5735
Rp5736
ag4
(g8
S'\x82\x82\xdbm\x12~\xfb?'
p5737
tp5738
Rp5739
ag4
(g8
S'$IY\xaf\x8b\x90\xf1?'
p5740
tp5741
Rp5742
ag4
(g8
S'\x93\xb9t\x944-\xe7?'
p5743
tp5744
Rp5745
ag4
(g8
S'\x94\xe7hn/\xea\xf6?'
p5746
tp5747
Rp5748
ag4
(g8
S'3\xf5iG\xc99\xeb?'
p5749
tp5750
Rp5751
ag4
(g8
S'\x8d\xb3\xeb\xcan\x13\xf0?'
p5752
tp5753
Rp5754
ag4
(g8
S'\xc0\xff\xd6\x1e\x13;\xfa?'
p5755
tp5756
Rp5757
ag4
(g8
S'\x14\xad+\xe3~\x8d\xea?'
p5758
tp5759
Rp5760
ag4
(g8
S"H\xdf@O\xf4'\xea?"
p5761
tp5762
Rp5763
ag4
(g8
S'n\xd0\x1e\xf0\xec5\x01@'
p5764
tp5765
Rp5766
ag4
(g8
S'*\x9e\xd4I\xde\xe5\xec?'
p5767
tp5768
Rp5769
ag4
(g8
S'\xc6\r\x01\xaa^\x87\xf5?'
p5770
tp5771
Rp5772
ag4
(g8
S'\xeb_\x17p\xb00\xeb?'
p5773
tp5774
Rp5775
ag4
(g8
S'\xc9~\xe2\x94\xf5`\xed?'
p5776
tp5777
Rp5778
ag4
(g8
S'HA{\x08\x8b\xfc\xe6?'
p5779
tp5780
Rp5781
ag4
(g8
S'\xe00\xc8%p\x1d\xf2?'
p5782
tp5783
Rp5784
ag4
(g8
S'\xb1dL\xbco\x13\xf0?'
p5785
tp5786
Rp5787
ag4
(g8
S"[\x1f\xe3'o-\xed?"
p5788
tp5789
Rp5790
ag4
(g8
S'\xdcp\xb07Z\x02\xf1?'
p5791
tp5792
Rp5793
ag4
(g8
S'R\xceSm\x99*\xe6?'
p5794
tp5795
Rp5796
ag4
(g8
S'K\xb3*\xf3}f\xe8?'
p5797
tp5798
Rp5799
ag4
(g8
S'\xbe\x97\xcd\x14\x00\x18\xf1?'
p5800
tp5801
Rp5802
ag4
(g8
S'\xe7zfij\x80\xe8?'
p5803
tp5804
Rp5805
ag4
(g8
S'V\x16 \xa0\xde\x1e\xe8?'
p5806
tp5807
Rp5808
ag4
(g8
S'\x1b1\xd7\xd4\xf8\xf6\x04@'
p5809
tp5810
Rp5811
ag4
(g8
S'jI\xe3a\x02\x9e\xeb?'
p5812
tp5813
Rp5814
ag4
(g8
S'\xfe0\xd7^\x8c\xad\xee?'
p5815
tp5816
Rp5817
ag4
(g8
S'4\xb4\x8dt\x80\x95\xe8?'
p5818
tp5819
Rp5820
ag4
(g8
S'e=\x92\x1b\x18G\xfa?'
p5821
tp5822
Rp5823
ag4
(g8
S'Z#?f\xa4\xce\xe8?'
p5824
tp5825
Rp5826
ag4
(g8
S'\x9d\xe5\x13\xa9\xd0\xe3\xf8?'
p5827
tp5828
Rp5829
ag4
(g8
S'\xf7\x9eK\xf6=\xf7\xf0?'
p5830
tp5831
Rp5832
ag4
(g8
S'I\x85\x00(x\n\xe6?'
p5833
tp5834
Rp5835
ag4
(g8
S'Jc\xfe\x11\x03\xa5\xe9?'
p5836
tp5837
Rp5838
ag4
(g8
S' \xff\xb0\x07\x97l\xe8?'
p5839
tp5840
Rp5841
ag4
(g8
S"\xcf\x8c'\x81\xaeo\xe6?"
p5842
tp5843
Rp5844
ag4
(g8
S'\xd6\x0f<\xc4\xfb!\xeb?'
p5845
tp5846
Rp5847
ag4
(g8
S'\x9a\xa2Q\xc7\xba=\xe7?'
p5848
tp5849
Rp5850
ag4
(g8
S'\xe2\xceD$\xaem\xf0?'
p5851
tp5852
Rp5853
ag4
(g8
S'~#E\xe4\xa0\xf5\xf6?'
p5854
tp5855
Rp5856
ag4
(g8
S'M\x88\x0c\xb4\x90\xb5\xf7?'
p5857
tp5858
Rp5859
ag4
(g8
S'\x85w\x1d\xe8\xd9\x8f\xf2?'
p5860
tp5861
Rp5862
ag4
(g8
S'\xd8\x9eg\xec\x12F\xf9?'
p5863
tp5864
Rp5865
ag4
(g8
S'\xaa\xb9c\xe7\x88|\xec?'
p5866
tp5867
Rp5868
ag4
(g8
S'\xd4\xf6\xaf\x1d\xfe\xc0\xf4?'
p5869
tp5870
Rp5871
ag4
(g8
S'sP\xec\x9d\xd8\x18\xe8?'
p5872
tp5873
Rp5874
ag4
(g8
S'Vh\xb8F\xf4\xe9\xe6?'
p5875
tp5876
Rp5877
ag4
(g8
S'j<\x07\xe3\xb9I\xea?'
p5878
tp5879
Rp5880
ag4
(g8
S'H\xa9\xbc\x10Q\xf1\xf3?'
p5881
tp5882
Rp5883
ag4
(g8
S'\xbd\xa4D\xa3\xf5}\xe8?'
p5884
tp5885
Rp5886
ag4
(g8
S'\x82\xc3i\xf9*d\xe8?'
p5887
tp5888
Rp5889
ag4
(g8
S'B!>\x82\xc6x\xe8?'
p5890
tp5891
Rp5892
ag4
(g8
S'E\xb0,\xee\xe1\x05\xeb?'
p5893
tp5894
Rp5895
ag4
(g8
S'\x8dfC\xb9A\xee\xf4?'
p5896
tp5897
Rp5898
ag4
(g8
S'\xbf3\xb3\xd0\xad\x8c\xe8?'
p5899
tp5900
Rp5901
ag4
(g8
S'a\x94\xcf\x9cW\x14\xe9?'
p5902
tp5903
Rp5904
ag4
(g8
S'\x9ca\x96"#\xbe\xf1?'
p5905
tp5906
Rp5907
ag4
(g8
S'R\x91e\xecXo\xe5?'
p5908
tp5909
Rp5910
ag4
(g8
S'<xn\xf3\x81\x1e\xf2?'
p5911
tp5912
Rp5913
ag4
(g8
S'\x18=\x93\xf7\xc5\xb7\xe6?'
p5914
tp5915
Rp5916
ag4
(g8
S'\xb6n3\xee}\xce\xdc?'
p5917
tp5918
Rp5919
ag4
(g8
S'$z\xf9%\xf7\xbf\xf4?'
p5920
tp5921
Rp5922
ag4
(g8
S'\xcf\x0b\xfcO\x85l\xec?'
p5923
tp5924
Rp5925
ag4
(g8
S"\x9c'\xcc\xb7\xd8\xd2\xf1?"
p5926
tp5927
Rp5928
ag4
(g8
S'Cn-\x9c*o\xfd?'
p5929
tp5930
Rp5931
ag4
(g8
S'\xac\xa9\n\xca\xca\x1d\xed?'
p5932
tp5933
Rp5934
ag4
(g8
S'\xde\x8c\x9e\xaa1\x9b\xeb?'
p5935
tp5936
Rp5937
ag4
(g8
S'\xce\xd6\x9dc\xac\x98\xe7?'
p5938
tp5939
Rp5940
ag4
(g8
S'\xf3\x1a\xacL\xc2}\xdf?'
p5941
tp5942
Rp5943
ag4
(g8
S'\x8c\x8e\xb9F\x11\x01\xf2?'
p5944
tp5945
Rp5946
ag4
(g8
S'\xc0\x93Ux\x9ck\xed?'
p5947
tp5948
Rp5949
ag4
(g8
S'\xf1\x9fm~,\x1e\xeb?'
p5950
tp5951
Rp5952
ag4
(g8
S'\xc5\xf2#p\x8c\x88\xe6?'
p5953
tp5954
Rp5955
ag4
(g8
S'\x0cs\xde,\x9b\x07\xf1?'
p5956
tp5957
Rp5958
ag4
(g8
S'\x84\xa1x\xa6\xdf\x12\xf1?'
p5959
tp5960
Rp5961
ag4
(g8
S'\x9ea\xd9\xe1\xdb\xd6\xf1?'
p5962
tp5963
Rp5964
ag4
(g8
S'\x89\x82\x8e\x9ac\x98\xfb?'
p5965
tp5966
Rp5967
ag4
(g8
S'\x85\xf6\x8b#j\x0b\xe9?'
p5968
tp5969
Rp5970
ag4
(g8
S'\xa2\x17_\xb8m\x03\xee?'
p5971
tp5972
Rp5973
ag4
(g8
S'\x03\x17\xa6\x7f\xf5\xa7\xeb?'
p5974
tp5975
Rp5976
ag4
(g8
S'\xb7\xb2\xf6\x018\xcc\x01@'
p5977
tp5978
Rp5979
ag4
(g8
S'\xa3\xf7\xe6\xb0\xe1\xc1\xe9?'
p5980
tp5981
Rp5982
ag4
(g8
S'aG\x8e:}9\xf0?'
p5983
tp5984
Rp5985
ag4
(g8
S'\x1f\xc3Bc\xacX\xea?'
p5986
tp5987
Rp5988
ag4
(g8
S'\xe5\xaaqY\xf6=\xee?'
p5989
tp5990
Rp5991
ag4
(g8
S'W@\x8cI\xaf\xab\xe6?'
p5992
tp5993
Rp5994
ag4
(g8
S'(Y\xe8\x92\xcd\xf6\xe6?'
p5995
tp5996
Rp5997
ag4
(g8
S'\xcd!Q\xf7\x9a\x8e\xed?'
p5998
tp5999
Rp6000
ag4
(g8
S'\xea\xcb\xbdZbU\xec?'
p6001
tp6002
Rp6003
ag4
(g8
S'aP\xf4=vO\xe5?'
p6004
tp6005
Rp6006
ag4
(g8
S'\xcfPv\xe2\xe8\xa4\xef?'
p6007
tp6008
Rp6009
ag4
(g8
S'\x8c{\x96E&\x84\xf0?'
p6010
tp6011
Rp6012
atp6013
.