(S'pendigits'
p0
(lp1
I891
aI808
aI896
aI274
aI944
aI609
aI995
aI69
aI883
aI565
aI994
aI766
aI917
aI188
aI916
aI870
aI823
aI855
aI913
aI783
aI747
aI933
aI477
aI985
aI848
aI122
aI729
aI839
aI649
aI358
aI805
aI391
aI332
aI721
aI928
aI636
aI460
aI28
aI690
aI603
aI996
aI847
aI468
aI333
aI991
aI900
aI639
aI540
aI919
aI975
aI479
aI962
aI830
aI360
aI806
aI492
aI459
aI46
aI286
aI841
aI545
aI993
aI445
aI893
aI809
aI656
aI657
aI992
aI715
aI777
aI794
aI999
aI998
aI972
aI997
aI850
aI471
aI961
aI990
aI989
aI954
aI451
aI407
aI340
aI971
aI543
aI389
aI925
aI988
aI885
aI698
aI987
aI986
aI984
aI837
aI983
aI982
aI981
aI980
aI979
aI978
aI966
aI977
aI976
aI974
aI859
aI773
aI922
aI969
aI973
aI970
aI927
aI968
aI920
aI967
aI965
aI964
aI895
aI963
aI960
aI959
aI958
aI935
aI615
aI957
aI772
aI948
aI956
aI955
aI953
aI952
aI951
aI764
aI950
aI756
aI949
aI947
aI946
aI945
aI943
aI942
aI941
aI865
aI888
aI940
aI760
aI939
aI938
aI786
aI937
aI936
aI934
aI932
aI931
aI930
aI929
aI926
aI923
aI924
aI921
aI918
aI907
aI734
aI915
aI914
aI912
aI911
aI910
aI909
aI908
aI906
aI905
aI858
aI904
aI903
aI897
aI767
aI902
aI901
aI899
aI898
aI894
aI892
aI890
aI889
aI887
aI886
aI884
aI882
aI881
aI880
aI879
aI878
aI877
aI876
aI875
aI874
aI873
aI872
aI871
aI869
aI868
aI791
aI748
aI867
aI845
aI866
aI864
aI863
aI862
aI861
aI860
aI857
aI856
aI854
aI853
aI852
aI851
aI849
aI792
aI846
aI844
aI843
aI842
aI840
aI699
aI838
aI836
aI835
aI834
aI833
aI832
aI831
aI829
aI828
aI827
aI826
aI825
aI824
aI822
aI821
aI820
aI819
aI818
aI817
aI816
aI815
aI814
aI813
aI812
aI811
aI810
aI807
aI804
aI803
aI802
aI801
aI800
aI799
aI754
aI788
aI798
aI797
aI796
aI795
aI793
aI790
aI789
aI787
aI681
aI785
aI784
aI782
aI781
aI780
aI779
aI778
aI776
aI775
aI774
aI765
aI771
aI759
aI677
aI770
aI769
aI654
aI768
aI763
aI762
aI761
aI758
aI757
aI755
aI753
aI679
aI592
aI752
aI750
aI751
aI749
aI704
aI746
aI745
aI744
aI743
aI742
aI741
aI740
aI739
aI738
aI737
aI736
aI735
aI733
aI732
aI668
aI731
aI730
aI728
aI727
aI726
aI655
aI667
aI725
aI526
aI513
aI724
aI723
aI634
aI722
aI720
aI719
aI718
aI717
aI716
aI714
aI713
aI712
aI711
aI710
aI709
aI708
aI707
aI706
aI705
aI703
aI702
aI701
aI700
aI697
aI696
aI695
aI694
aI693
aI692
aI691
aI689
aI688
aI687
aI686
aI685
aI684
aI683
aI682
aI652
aI680
aI678
aI676
aI675
aI674
aI672
aI671
aI670
aI669
aI673
aI666
aI665
aI664
aI663
aI614
aI662
aI661
aI660
aI659
aI658
aI653
aI651
aI650
aI648
aI647
aI510
aI646
aI645
aI644
aI643
aI642
aI641
aI640
aI638
aI637
aI635
aI633
aI632
aI631
aI630
aI629
aI628
aI627
aI626
aI625
aI624
aI623
aI622
aI621
aI620
aI619
aI618
aI617
aI604
aI616
aI613
aI612
aI611
aI610
aI608
aI607
aI606
aI605
aI602
aI601
aI600
aI599
aI598
aI597
aI596
aI595
aI594
aI593
aI591
aI590
aI589
aI588
aI587
aI586
aI585
aI584
aI583
aI582
aI581
aI580
aI579
aI578
aI577
aI576
aI575
aI574
aI573
aI572
aI571
aI570
aI569
aI568
aI567
aI566
aI564
aI563
aI562
aI561
aI560
aI559
aI421
aI558
aI557
aI556
aI555
aI461
aI554
aI553
aI552
aI551
aI550
aI549
aI548
aI547
aI508
aI546
aI544
aI542
aI541
aI539
aI538
aI537
aI536
aI535
aI534
aI533
aI532
aI531
aI530
aI529
aI528
aI527
aI525
aI524
aI523
aI522
aI521
aI520
aI519
aI518
aI517
aI516
aI515
aI514
aI512
aI511
aI440
aI509
aI507
aI506
aI505
aI504
aI427
aI503
aI502
aI501
aI500
aI499
aI498
aI497
aI496
aI495
aI494
aI420
aI493
aI491
aI490
aI489
aI488
aI487
aI486
aI470
aI485
aI484
aI483
aI482
aI394
aI481
aI480
aI478
aI476
aI475
aI474
aI473
aI472
aI469
aI462
aI467
aI431
aI466
aI465
aI464
aI463
aI458
aI457
aI456
aI455
aI454
aI453
aI452
aI450
aI449
aI448
aI447
aI446
aI444
aI443
aI442
aI441
aI439
aI438
aI437
aI436
aI406
aI435
aI434
aI433
aI432
aI430
aI429
aI428
aI426
aI425
aI424
aI423
aI422
aI419
aI418
aI417
aI416
aI415
aI414
aI413
aI412
aI411
aI410
aI409
aI408
aI405
aI404
aI403
aI402
aI401
aI400
aI399
aI384
aI398
aI397
aI396
aI395
aI393
aI392
aI390
aI388
aI370
aI387
aI386
aI385
aI383
aI382
aI381
aI380
aI379
aI378
aI377
aI376
aI375
aI374
aI373
aI372
aI371
aI369
aI368
aI367
aI366
aI365
aI364
aI363
aI362
aI361
aI359
aI357
aI356
aI355
aI354
aI353
aI352
aI351
aI350
aI349
aI348
aI347
aI346
aI345
aI344
aI343
aI342
aI341
aI339
aI338
aI337
aI336
aI335
aI334
aI331
aI330
aI329
aI328
aI327
aI326
aI325
aI324
aI323
aI322
aI321
aI320
aI319
aI318
aI317
aI316
aI315
aI314
aI313
aI312
aI311
aI310
aI309
aI308
aI307
aI306
aI305
aI304
aI303
aI302
aI301
aI300
aI299
aI298
aI297
aI296
aI295
aI294
aI293
aI292
aI291
aI290
aI289
aI288
aI287
aI285
aI284
aI283
aI282
aI281
aI280
aI279
aI278
aI277
aI276
aI275
aI273
aI272
aI271
aI270
aI269
aI268
aI267
aI266
aI265
aI264
aI263
aI262
aI261
aI260
aI259
aI258
aI257
aI256
aI255
aI254
aI253
aI252
aI251
aI250
aI249
aI248
aI247
aI246
aI245
aI244
aI243
aI242
aI241
aI240
aI239
aI238
aI237
aI236
aI235
aI234
aI233
aI232
aI231
aI230
aI229
aI228
aI227
aI226
aI225
aI224
aI223
aI222
aI221
aI220
aI219
aI218
aI217
aI216
aI215
aI214
aI213
aI212
aI211
aI210
aI209
aI208
aI207
aI206
aI205
aI204
aI203
aI202
aI201
aI200
aI199
aI198
aI197
aI196
aI195
aI194
aI193
aI192
aI191
aI190
aI189
aI187
aI186
aI185
aI184
aI183
aI182
aI181
aI180
aI179
aI178
aI177
aI176
aI175
aI174
aI173
aI172
aI171
aI170
aI169
aI168
aI167
aI166
aI165
aI164
aI163
aI162
aI161
aI160
aI159
aI158
aI157
aI156
aI155
aI154
aI153
aI152
aI151
aI150
aI149
aI148
aI147
aI146
aI145
aI144
aI143
aI142
aI141
aI140
aI139
aI138
aI137
aI136
aI135
aI134
aI133
aI132
aI131
aI130
aI129
aI128
aI127
aI126
aI125
aI124
aI123
aI121
aI120
aI119
aI118
aI117
aI116
aI115
aI114
aI113
aI112
aI111
aI110
aI109
aI108
aI107
aI106
aI105
aI104
aI103
aI102
aI101
aI100
aI99
aI98
aI97
aI96
aI95
aI94
aI93
aI92
aI91
aI90
aI89
aI88
aI87
aI86
aI85
aI84
aI83
aI82
aI81
aI80
aI79
aI78
aI77
aI76
aI75
aI74
aI73
aI72
aI71
aI70
aI68
aI67
aI66
aI65
aI64
aI63
aI62
aI61
aI60
aI59
aI58
aI57
aI56
aI55
aI54
aI53
aI52
aI51
aI50
aI49
aI48
aI47
aI45
aI44
aI43
aI42
aI41
aI40
aI39
aI38
aI37
aI36
aI35
aI34
aI33
aI32
aI31
aI30
aI29
aI27
aI26
aI25
aI24
aI23
aI22
aI21
aI20
aI19
aI18
aI17
aI16
aI15
aI14
aI13
aI12
aI11
aI10
aI9
a(lp2
F0.9960565231679264
aF0.9957279000985869
aF0.9970423923759447
aF0.9976996385146237
aF0.9990141307919815
aF0.9996713769306605
aF0.9993427538613211
aF0.9983568846533026
aF1.0013144922773578
aF0.9980282615839632
aF0.9934275386132105
aF0.9898126848504764
aF0.9914558001971737
aF0.9950706539599079
aF0.9891554387117975
aF0.9875123233651003
aF0.9858692080184029
aF0.9865264541570818
aF0.9878409464344398
aF0.9884981925731187
aF0.9871837002957609
aF0.9868550772264213
aF0.9891554387117975
aF0.9907985540584948
aF0.9940847847518895
aF0.9960565231679264
aF0.9940847847518895
aF0.9911271771278343
aF0.9921130463358527
aF0.9917844232665133
aF0.9878409464344398
aF0.9894840617811369
aF0.9914558001971737
aF0.9884981925731187
aF0.9888268156424581
aF0.9891554387117975
aF0.9861978310877424
aF0.9825829773250082
aF0.9861978310877424
aF0.9825829773250082
aF0.9812684850476503
aF0.9769963851462372
aF0.9819257311863293
aF0.9819257311863293
aF0.9829116003943477
aF0.9812684850476503
aF0.9750246467302004
aF0.9832402234636871
aF0.9792967466316135
aF0.9825829773250082
aF0.9773250082155767
aF0.9727242852448241
aF0.9792967466316135
aF0.9822543542556688
aF0.9763391390075583
aF0.9822543542556688
aF0.9819257311863293
aF0.9802826158396319
aF0.9786395004929346
aF0.9714097929674663
aF0.978968123562274
aF0.9717384160368059
aF0.9756818928688793
aF0.9769963851462372
aF0.9743674005915215
aF0.9809398619783108
aF0.9766677620768978
aF0.9773250082155767
aF0.9727242852448241
aF0.9835688465330267
aF0.9769963851462372
aF0.9783108774235951
aF0.9855405849490635
aF0.9829116003943477
aF0.9865264541570818
aF0.9911271771278343
aF0.984554715741045
aF0.9835688465330267
aF0.9855405849490635
aF0.9855405849490635
aF0.9838974696023661
aF0.9838974696023661
aF0.9891554387117975
aF0.9917844232665133
aF0.9878409464344398
aF0.9937561616825501
aF0.9855405849490635
aF0.9766677620768978
aF0.9861978310877424
aF0.9829116003943477
aF0.9819257311863293
aF0.9855405849490635
aF0.9743674005915215
aF0.984554715741045
aF0.9838974696023661
aF0.9760105159382187
aF0.9753532697995398
aF0.9763391390075583
aF0.9779822543542556
aF0.9776536312849161
aF0.9730529083141636
aF0.9779822543542556
aF0.9819257311863293
aF0.9763391390075583
aF0.9825829773250082
aF0.9783108774235951
aF0.9776536312849161
aF0.9842260926717056
aF0.9714097929674663
aF0.9730529083141636
aF0.9720670391061451
aF0.9776536312849161
aF0.9753532697995398
aF0.9743674005915215
aF0.9766677620768978
aF0.9871837002957609
aF0.9786395004929346
aF0.9783108774235951
aF0.9829116003943477
aF0.9776536312849161
aF0.9687808084127506
aF0.9763391390075583
aF0.9779822543542556
aF0.9668090699967138
aF0.9723956621754846
aF0.9779822543542556
aF0.9750246467302004
aF0.9723956621754846
aF0.973381531383503
aF0.9792967466316135
aF0.9756818928688793
aF0.9783108774235951
aF0.9753532697995398
aF0.9796253697009529
aF0.9720670391061451
aF0.970423923759448
aF0.9671376930660532
aF0.9710811698981269
aF0.9815971081169897
aF0.9815971081169897
aF0.978968123562274
aF0.9802826158396319
aF0.9861978310877424
aF0.9710811698981269
aF0.9806112389089714
aF0.9779822543542556
aF0.9737101544528425
aF0.9743674005915215
aF0.9792967466316135
aF0.978968123562274
aF0.978968123562274
aF0.970423923759448
aF0.9750246467302004
aF0.9802826158396319
aF0.9799539927702925
aF0.9730529083141636
aF0.9746960236608609
aF0.9750246467302004
aF0.9779822543542556
aF0.9773250082155767
aF0.978968123562274
aF0.9746960236608609
aF0.9799539927702925
aF0.9812684850476503
aF0.9760105159382187
aF0.9779822543542556
aF0.9855405849490635
aF0.9799539927702925
aF0.978968123562274
aF0.9832402234636871
aF0.9760105159382187
aF0.9783108774235951
aF0.9861978310877424
aF0.9822543542556688
aF0.9717384160368059
aF0.9835688465330267
aF0.9799539927702925
aF0.9792967466316135
aF0.9825829773250082
aF0.9848833388103845
aF0.9832402234636871
aF0.9812684850476503
aF0.9819257311863293
aF0.9786395004929346
aF0.9786395004929346
aF0.9769963851462372
aF0.9756818928688793
aF0.9753532697995398
aF0.9783108774235951
aF0.9756818928688793
aF0.978968123562274
aF0.9763391390075583
aF0.9769963851462372
aF0.9773250082155767
aF0.973381531383503
aF0.9723956621754846
aF0.9746960236608609
aF0.9796253697009529
aF0.9730529083141636
aF0.9792967466316135
aF0.9815971081169897
aF0.9819257311863293
aF0.9838974696023661
aF0.9822543542556688
aF0.9819257311863293
aF0.9829116003943477
aF0.9868550772264213
aF0.9875123233651003
aF0.9861978310877424
aF0.9855405849490635
aF0.9865264541570818
aF0.9822543542556688
aF0.9809398619783108
aF0.9832402234636871
aF0.9838974696023661
aF0.9756818928688793
aF0.978968123562274
aF0.9822543542556688
aF0.9812684850476503
aF0.9878409464344398
aF0.9806112389089714
aF0.9881695695037792
aF0.984554715741045
aF0.9819257311863293
aF0.9740387775221819
aF0.9802826158396319
aF0.984554715741045
aF0.984554715741045
aF0.9806112389089714
aF0.9802826158396319
aF0.9825829773250082
aF0.9832402234636871
aF0.9786395004929346
aF0.9799539927702925
aF0.9815971081169897
aF0.9786395004929346
aF0.9799539927702925
aF0.9802826158396319
aF0.9835688465330267
aF0.9773250082155767
aF0.9842260926717056
aF0.9819257311863293
aF0.9852119618797239
aF0.978968123562274
aF0.9779822543542556
aF0.9786395004929346
aF0.9812684850476503
aF0.9835688465330267
aF0.9865264541570818
aF0.9796253697009529
aF0.9868550772264213
aF0.9753532697995398
aF0.9763391390075583
aF0.9815971081169897
aF0.9878409464344398
aF0.9868550772264213
aF0.9871837002957609
aF0.9875123233651003
aF0.9786395004929346
aF0.9868550772264213
aF0.9809398619783108
aF0.9809398619783108
aF0.9894840617811369
aF0.9819257311863293
aF0.9865264541570818
aF0.9881695695037792
aF0.9773250082155767
aF0.9865264541570818
aF0.9822543542556688
aF0.9881695695037792
aF0.9822543542556688
aF0.9819257311863293
aF0.9865264541570818
aF0.9852119618797239
aF0.9802826158396319
aF0.9776536312849161
aF0.9815971081169897
aF0.9888268156424581
aF0.984554715741045
aF0.9878409464344398
aF0.9825829773250082
aF0.9901413079198159
aF0.9835688465330267
aF0.9819257311863293
aF0.9865264541570818
aF0.9894840617811369
aF0.9842260926717056
aF0.9871837002957609
aF0.9858692080184029
aF0.9861978310877424
aF0.9835688465330267
aF0.9861978310877424
aF0.9835688465330267
aF0.9825829773250082
aF0.9865264541570818
aF0.9829116003943477
aF0.9802826158396319
aF0.9773250082155767
aF0.9763391390075583
aF0.9799539927702925
aF0.9776536312849161
aF0.9779822543542556
aF0.9835688465330267
aF0.9855405849490635
aF0.9750246467302004
aF0.9717384160368059
aF0.9829116003943477
aF0.9815971081169897
aF0.9858692080184029
aF0.9855405849490635
aF0.9858692080184029
aF0.9852119618797239
aF0.9884981925731187
aF0.9848833388103845
aF0.9792967466316135
aF0.984554715741045
aF0.9878409464344398
aF0.9815971081169897
aF0.9822543542556688
aF0.9819257311863293
aF0.9825829773250082
aF0.9750246467302004
aF0.9779822543542556
aF0.9730529083141636
aF0.9763391390075583
aF0.9769963851462372
aF0.978968123562274
aF0.9717384160368059
aF0.9792967466316135
aF0.978968123562274
aF0.9792967466316135
aF0.9796253697009529
aF0.9783108774235951
aF0.9684521853434112
aF0.9796253697009529
aF0.9779822543542556
aF0.9819257311863293
aF0.9832402234636871
aF0.9819257311863293
aF0.9776536312849161
aF0.9832402234636871
aF0.9865264541570818
aF0.9815971081169897
aF0.9815971081169897
aF0.9848833388103845
aF0.9822543542556688
aF0.9861978310877424
aF0.9835688465330267
aF0.9848833388103845
aF0.9779822543542556
aF0.9832402234636871
aF0.9763391390075583
aF0.9717384160368059
aF0.9710811698981269
aF0.9750246467302004
aF0.9730529083141636
aF0.9737101544528425
aF0.9796253697009529
aF0.9812684850476503
aF0.9786395004929346
aF0.9806112389089714
aF0.9806112389089714
aF0.970423923759448
aF0.9773250082155767
aF0.9773250082155767
aF0.984554715741045
aF0.9884981925731187
aF0.9875123233651003
aF0.9832402234636871
aF0.9753532697995398
aF0.9822543542556688
aF0.9861978310877424
aF0.9746960236608609
aF0.9835688465330267
aF0.9858692080184029
aF0.9812684850476503
aF0.984554715741045
aF0.9832402234636871
aF0.9865264541570818
aF0.9865264541570818
aF0.9760105159382187
aF0.9838974696023661
aF0.9802826158396319
aF0.9809398619783108
aF0.978968123562274
aF0.9740387775221819
aF0.9746960236608609
aF0.9760105159382187
aF0.9832402234636871
aF0.9829116003943477
aF0.9799539927702925
aF0.9806112389089714
aF0.9766677620768978
aF0.9779822543542556
aF0.9740387775221819
aF0.973381531383503
aF0.9812684850476503
aF0.9779822543542556
aF0.9786395004929346
aF0.9779822543542556
aF0.9796253697009529
aF0.9773250082155767
aF0.9727242852448241
aF0.9710811698981269
aF0.9779822543542556
aF0.9756818928688793
aF0.9773250082155767
aF0.9792967466316135
aF0.9737101544528425
aF0.973381531383503
aF0.9714097929674663
aF0.9723956621754846
aF0.9802826158396319
aF0.9769963851462372
aF0.9753532697995398
aF0.9832402234636871
aF0.9842260926717056
aF0.9760105159382187
aF0.9723956621754846
aF0.9832402234636871
aF0.9786395004929346
aF0.9822543542556688
aF0.9779822543542556
aF0.9783108774235951
aF0.9855405849490635
aF0.9865264541570818
aF0.9875123233651003
aF0.973381531383503
aF0.9763391390075583
aF0.9799539927702925
aF0.9707525468287874
aF0.9760105159382187
aF0.9700953006901085
aF0.9806112389089714
aF0.9756818928688793
aF0.9835688465330267
aF0.9825829773250082
aF0.9812684850476503
aF0.9727242852448241
aF0.9773250082155767
aF0.978968123562274
aF0.9783108774235951
aF0.9737101544528425
aF0.9727242852448241
aF0.978968123562274
aF0.9763391390075583
aF0.9809398619783108
aF0.9792967466316135
aF0.9730529083141636
aF0.9766677620768978
aF0.9861978310877424
aF0.9842260926717056
aF0.9783108774235951
aF0.9753532697995398
aF0.9779822543542556
aF0.9763391390075583
aF0.9714097929674663
aF0.9865264541570818
aF0.9802826158396319
aF0.9763391390075583
aF0.9832402234636871
aF0.9763391390075583
aF0.9786395004929346
aF0.9720670391061451
aF0.9776536312849161
aF0.9677949392047321
aF0.9756818928688793
aF0.9743674005915215
aF0.9743674005915215
aF0.9717384160368059
aF0.9737101544528425
aF0.9674663161353927
aF0.9868550772264213
aF0.9799539927702925
aF0.9694380545514295
aF0.9838974696023661
aF0.9756818928688793
aF0.9763391390075583
aF0.9753532697995398
aF0.9898126848504764
aF0.9878409464344398
aF0.9835688465330267
aF0.9838974696023661
aF0.973381531383503
aF0.9750246467302004
aF0.9753532697995398
aF0.964180085441998
aF0.9635228393033191
aF0.9677949392047321
aF0.9684521853434112
aF0.9717384160368059
aF0.9773250082155767
aF0.9737101544528425
aF0.9671376930660532
aF0.978968123562274
aF0.9730529083141636
aF0.9717384160368059
aF0.964837331580677
aF0.9595793624712454
aF0.964180085441998
aF0.9720670391061451
aF0.9661518238580349
aF0.9671376930660532
aF0.964180085441998
aF0.9602366086099243
aF0.9595793624712454
aF0.9599079855405849
aF0.9625369700953007
aF0.9608938547486033
aF0.9599079855405849
aF0.9618797239566217
aF0.9671376930660532
aF0.9664804469273743
aF0.9638514623726585
aF0.9658232007886953
aF0.9612224778179428
aF0.9628655931646402
aF0.9664804469273743
aF0.9681235622740717
aF0.9681235622740717
aF0.9615511008872822
aF0.9654945777193559
aF0.9697666776207691
aF0.9553072625698323
aF0.973381531383503
aF0.9599079855405849
aF0.9572790009858692
aF0.9638514623726585
aF0.9608938547486033
aF0.9645087085113375
aF0.9671376930660532
aF0.9687808084127506
aF0.9710811698981269
aF0.9694380545514295
aF0.9720670391061451
aF0.964180085441998
aF0.9631942162339796
aF0.9625369700953007
aF0.9622083470259611
aF0.9559645087085112
aF0.9582648701938875
aF0.9654945777193559
aF0.9664804469273743
aF0.9635228393033191
aF0.9638514623726585
aF0.9559645087085112
aF0.9516924088070983
aF0.9576076240552086
aF0.959250739401906
aF0.9526782780151167
aF0.9546500164311535
aF0.9566217548471901
aF0.9628655931646402
aF0.964180085441998
aF0.9658232007886953
aF0.9638514623726585
aF0.970423923759448
aF0.9523496549457773
aF0.9546500164311535
aF0.964180085441998
aF0.9513637857377588
aF0.9546500164311535
aF0.9520210318764377
aF0.9447913243509694
aF0.9474203089056852
aF0.9507065395990799
aF0.9539927702924745
aF0.959250739401906
aF0.9497206703910615
aF0.9638514623726585
aF0.9625369700953007
aF0.9651659546500164
aF0.9635228393033191
aF0.964837331580677
aF0.9661518238580349
aF0.9674663161353927
aF0.9654945777193559
aF0.9530069010844562
aF0.964180085441998
aF0.9700953006901085
aF0.9707525468287874
aF0.9697666776207691
aF0.9612224778179428
aF0.9654945777193559
aF0.9645087085113375
aF0.9526782780151167
aF0.9658232007886953
aF0.9638514623726585
aF0.9566217548471901
aF0.9608938547486033
aF0.9599079855405849
aF0.9625369700953007
aF0.9612224778179428
aF0.9562931317778507
aF0.9562931317778507
aF0.9566217548471901
aF0.964837331580677
aF0.9674663161353927
aF0.9631942162339796
aF0.9615511008872822
aF0.964180085441998
aF0.9631942162339796
aF0.9638514623726585
aF0.9645087085113375
aF0.9618797239566217
aF0.9658232007886953
aF0.9654945777193559
aF0.9608938547486033
aF0.9618797239566217
aF0.9654945777193559
aF0.9599079855405849
aF0.9576076240552086
aF0.9582648701938875
aF0.9668090699967138
aF0.9645087085113375
aF0.9651659546500164
aF0.9530069010844562
aF0.9579362471245481
aF0.9556358856391718
aF0.9618797239566217
aF0.9480775550443641
aF0.9516924088070983
aF0.9605652316792638
aF0.9595793624712454
aF0.9556358856391718
aF0.9530069010844562
aF0.9526782780151167
aF0.9589221163325665
aF0.9513637857377588
aF0.9589221163325665
aF0.9572790009858692
aF0.9553072625698323
aF0.9553072625698323
aF0.9605652316792638
aF0.9599079855405849
aF0.9602366086099243
aF0.9503779165297404
aF0.958593493263227
aF0.9612224778179428
aF0.9628655931646402
aF0.9553072625698323
aF0.9572790009858692
aF0.9543213933618141
aF0.9484061781137035
aF0.9556358856391718
aF0.9543213933618141
aF0.9520210318764377
aF0.9602366086099243
aF0.9536641472231351
aF0.9484061781137035
aF0.9461058166283273
aF0.9530069010844562
aF0.9543213933618141
aF0.9503779165297404
aF0.943805455142951
aF0.9467630627670062
aF0.9421623397962536
aF0.9461058166283273
aF0.9434768320736115
aF0.9424909628655931
aF0.9355898784094644
aF0.9411764705882352
aF0.9415050936575747
aF0.9398619783108774
aF0.943148209004272
aF0.9398619783108774
aF0.9405192244495563
aF0.9401906013802168
aF0.9362471245481433
aF0.949392047321722
aF0.9447913243509694
aF0.9411764705882352
aF0.9372329937561618
aF0.9441340782122905
aF0.9336181399934276
aF0.9411764705882352
aF0.9405192244495563
aF0.9398619783108774
aF0.9349326322707855
aF0.933946763062767
aF0.9332895169240881
aF0.9332895169240881
aF0.9346040092014459
aF0.9326322707854091
aF0.9405192244495563
aF0.9349326322707855
aF0.9316464015773908
aF0.9323036477160697
aF0.9428195859349325
aF0.9329608938547486
aF0.9359185014788038
aF0.9362471245481433
aF0.9336181399934276
aF0.9388761091028589
aF0.9395333552415379
aF0.9342753861321065
aF0.9306605323693723
aF0.9365757476174827
aF0.9401906013802168
aF0.9421623397962536
aF0.9378902398948407
aF0.9369043706868223
aF0.9375616168255012
aF0.9378902398948407
aF0.9342753861321065
aF0.9362471245481433
aF0.9378902398948407
aF0.9319750246467302
aF0.9346040092014459
aF0.9375616168255012
aF0.9401906013802168
aF0.9352612553401249
aF0.9313177785080513
aF0.9306605323693723
aF0.93821886296418
aF0.9349326322707855
aF0.9378902398948407
aF0.9375616168255012
aF0.9369043706868223
aF0.9319750246467302
aF0.9323036477160697
aF0.9329608938547486
aF0.9378902398948407
aF0.9369043706868223
aF0.9329608938547486
aF0.9277029247453171
aF0.9309891554387117
aF0.9342753861321065
aF0.9293460400920144
aF0.9300032862306934
aF0.9369043706868223
aF0.9296746631613539
aF0.9359185014788038
aF0.9392047321721984
aF0.9378902398948407
aF0.9401906013802168
aF0.9329608938547486
aF0.9326322707854091
aF0.9398619783108774
aF0.9231022017745645
aF0.9257311863292802
aF0.9277029247453171
aF0.9254025632599407
aF0.9263884324679592
aF0.9336181399934276
aF0.9254025632599407
aF0.9201445941505094
aF0.9201445941505094
aF0.9296746631613539
aF0.9211304633585278
aF0.922773578705225
aF0.922773578705225
aF0.9168583634571147
aF0.9267170555372987
aF0.9139007558330595
aF0.9244166940519224
aF0.9280315478146566
aF0.9247453171212618
aF0.9300032862306934
aF0.9231022017745645
aF0.9270456786066381
aF0.9208018402891883
aF0.9106145251396648
aF0.9116003943476831
aF0.9270456786066381
aF0.9257311863292802
aF0.9247453171212618
aF0.9194873480118305
aF0.9188301018731515
aF0.9188301018731515
aF0.9300032862306934
aF0.9244166940519224
aF0.9217877094972066
aF0.9300032862306934
aF0.922773578705225
aF0.91981597108117
aF0.9270456786066381
aF0.9119290174170226
aF0.9204732172198489
aF0.9273743016759776
aF0.9211304633585278
aF0.9247453171212618
aF0.9359185014788038
aF0.9214590864278671
aF0.9234308248439039
aF0.9139007558330595
aF0.9237594479132434
aF0.9181728557344726
aF0.9250739401906013
aF0.9237594479132434
aF0.9280315478146566
aF0.9286887939533355
aF0.9254025632599407
aF0.9237594479132434
aF0.9171869865264541
aF0.9290174170226749
aF0.9254025632599407
aF0.9247453171212618
aF0.9237594479132434
aF0.9175156095957937
aF0.919158724942491
aF0.912914886625041
aF0.9240880709825829
aF0.9168583634571147
aF0.9234308248439039
aF0.9023989484061782
aF0.904370686822215
aF0.91357213276372
aF0.9178442326651332
aF0.9165297403877752
aF0.91357213276372
aF0.9125862635557016
aF0.9171869865264541
aF0.9125862635557016
aF0.9162011173184358
aF0.9224449556358856
aF0.9119290174170226
aF0.9211304633585278
aF0.9211304633585278
aF0.91981597108117
aF0.9237594479132434
aF0.9168583634571147
aF0.9211304633585278
aF0.9155438711797568
aF0.9260598093986198
aF0.9175156095957937
aF0.9181728557344726
aF0.918501478803812
aF0.9211304633585278
aF0.9178442326651332
aF0.9204732172198489
aF0.9247453171212618
aF0.9257311863292802
aF0.9247453171212618
aF0.9217877094972066
aF0.9286887939533355
aF0.922773578705225
aF0.9303319093000328
aF0.9208018402891883
aF0.9280315478146566
aF0.9247453171212618
aF0.9313177785080513
aF0.9263884324679592
aF0.9267170555372987
aF0.9293460400920144
aF0.9257311863292802
aF0.9306605323693723
aF0.9286887939533355
aF0.9323036477160697
aF0.9346040092014459
aF0.9336181399934276
aF0.9323036477160697
aF0.9306605323693723
aF0.9323036477160697
aF0.9263884324679592
aF0.9326322707854091
aF0.9280315478146566
aF0.9270456786066381
aF0.9247453171212618
aF0.9214590864278671
aF0.9201445941505094
aF0.9234308248439039
aF0.9221163325665461
aF0.9273743016759776
aF0.9296746631613539
aF0.9280315478146566
aF0.9277029247453171
aF0.928360170883996
aF0.9346040092014459
aF0.943148209004272
aF0.9369043706868223
aF0.9303319093000328
aF0.9405192244495563
aF0.9346040092014459
aF0.9428195859349325
aF0.9352612553401249
aF0.9395333552415379
aF0.9234308248439039
aF0.9293460400920144
aF0.9208018402891883
aF0.9231022017745645
aF0.9273743016759776
aF0.9296746631613539
aF0.9355898784094644
aF0.9428195859349325
aF0.9441340782122905
aF0.943148209004272
aF0.9342753861321065
aF0.9293460400920144
aF0.922773578705225
aF0.9250739401906013
aF0.9323036477160697
aF0.9359185014788038
aF0.9270456786066381
aF0.9280315478146566
aF0.9296746631613539
aF0.928360170883996
aF0.9336181399934276
aF0.9270456786066381
aF0.9221163325665461
aF0.9109431482090042
aF0.9004272099901414
aF0.9102859020703253
aF0.9152152481104173
aF0.9076569175156095
aF0.914229378902399
aF0.9162011173184358
aF0.9069996713769306
aF0.9204732172198489
aF0.9211304633585278
aF0.9158724942490963
aF0.9165297403877752
aF0.9083141636542884
aF0.9175156095957937
aF0.9165297403877752
aF0.9211304633585278
aF0.9119290174170226
aF0.9217877094972066
aF0.9181728557344726
aF0.9224449556358856
aF0.9050279329608938
aF0.9155438711797568
aF0.9040420637528755
aF0.8826815642458101
aF0.8991127177127834
aF0.8846533026618469
aF0.8780808412750575
aF0.8790667104830759
aF0.8780808412750575
aF0.8718370029576076
aF0.8695366414722314
aF0.8649359185014788
aF0.8793953335524154
aF0.8701938876109103
aF0.8675649030561946
aF0.8724942490962865
aF0.867893526125534
aF0.8550772264212947
aF0.8554058494906341
aF0.8478475188958265
aF0.8416036805783765
aF0.8330594807755505
aF0.8465330266184686
aF0.8511337495892212
aF0.8471902727571475
aF0.8485047650345054
aF0.8458757804797896
aF0.8350312191915873
aF0.8442326651330924
aF0.8540913572132762
aF0.8639500492934604
aF0.8649359185014788
aF0.8593493263227078
aF0.8596779493920472
aF0.8550772264212947
aF0.8669076569175156
aF0.8646072954321393
aF0.8593493263227078
aF0.883338810384489
aF0.8304304962208346
aF0.8297732500821557
aF0.8225435425566874
aF0.8202431810713111
aF0.8297732500821557
aF0.8084127505750903
aF0.7223135064081498
aF0.7200131449227736
aF0.720341767992113
aF0.6674334538284588
aF0.6786066381860006
aF0.6723627998685507
aF0.6759776536312849
aF0.6769635228393033
aF0.6749917844232665
aF0.6730200460072296
aF0.6664475846204403
aF0.6657903384817614
aF0.6723627998685507
aF0.649359185014788
aF0.6411436082813013
aF0.6279986855077226
aF0.6115675320407493
aF0.619125862635557
aF0.6141965165954649
aF0.5129806112389089
aF0.517252711140322
aF0.44101215905356556
aF0.4393690437068682
aF0.44199802826158396
aF0.4403549129148866
aF0.38350312191915875
a(lp3
F1.0031330585111202
aF1.0062723956966115
aF1.0094180304491749
aF1.0115007420523414
aF1.0125173257126956
aF1.0146073458857512
aF1.0156291055492814
aF1.0166529252121337
aF1.0187534455466611
aF1.0197824894310517
aF1.020813614293975
aF1.019691031461672
aF1.0207241530740951
aF1.0228394541687997
aF1.0227966894255147
aF1.0249183961488175
aF1.025961039481624
aF1.0280902897522821
aF1.0291382920863823
aF1.0301884332007563
aF1.0301529129830813
aF1.0322951580130277
aF1.0322617214026988
aF1.0333193666090539
aF1.035471450806914
aF1.0365345631794056
aF1.0375998607777401
aF1.0386673503464414
aF1.038640269629698
aF1.0386131330764248
aF1.0385859405137539
aF1.0407590279794752
aF1.0418353041200952
aF1.042913808575706
aF1.0428909599562979
aF1.043972797051688
aF1.042845120358482
aF1.0450361888061568
aF1.0450154535954403
aF1.0461040113596023
aF1.0460843463805147
aF1.0460646403471912
aF1.049383334279225
aF1.0504810155912325
aF1.049350707280219
aF1.0482180293501047
aF1.0515529123322236
aF1.0526574847191272
aF1.0515247108307044
aF1.0515105655512584
aF1.0526185851145367
aF1.0537289422718306
aF1.0548416444284006
aF1.0548309456103495
aF1.0536932794653773
aF1.0559376184545404
aF1.055928047820553
aF1.0570489905464773
aF1.0581723157224034
aF1.0570321528108217
aF1.0570237070456527
aF1.0558798885535807
aF1.0558701950234302
aF1.0581360421616013
aF1.058128740895138
aF1.0592616410459894
aF1.0592555305580382
aF1.0581067430880262
aF1.0603871614224973
aF1.0592371202491784
aF1.0615236647556947
aF1.061519958870405
aF1.0615162449896778
aF1.06151252308761
aF1.0615087931381861
aF1.0615050551152787
aF1.0615013089926468
aF1.0614975547439354
aF1.0614937923426753
aF1.0614900217622818
aF1.0603274151998803
aF1.0614824559571787
aF1.0626400158873393
aF1.0603122340499742
aF1.0603071515447777
aF1.0626323921113525
aF1.063796283011803
aF1.0649627263045793
aF1.0649627263045793
aF1.0637924375943544
aF1.0637911501480286
aF1.0649627263045793
aF1.0649627263045793
aF1.0649627263045793
aF1.0649627263045793
aF1.0649627263045793
aF1.0649627263045793
aF1.0649627263045793
aF1.0649627263045793
aF1.0649627263045793
aF1.0649627263045793
aF1.0649627263045793
aF1.0649627263045793
aF1.0649627263045793
aF1.0649627263045793
aF1.0649627263045793
aF1.0649627263045793
aF1.0649627263045793
aF1.0649627263045793
aF1.0649627263045793
aF1.0649627263045793
aF1.0649627263045793
aF1.0649627263045793
aF1.0649627263045793
aF1.0649627263045793
aF1.0649627263045793
aF1.0649627263045793
aF1.0649627263045793
aF1.0649627263045793
aF1.0649627263045793
aF1.0649627263045793
aF1.0649627263045793
aF1.063748401645167
aF1.0649627263045793
aF1.0649627263045793
aF1.0649627263045793
aF1.0649627263045793
aF1.0649627263045793
aF1.0649627263045793
aF1.0649627263045793
aF1.0649627263045793
aF1.0649627263045793
aF1.0649627263045793
aF1.0649627263045793
aF1.0649627263045793
aF1.0649627263045793
aF1.0649627263045793
aF1.0649627263045793
aF1.0649627263045793
aF1.0649627263045793
aF1.0649627263045793
aF1.0649627263045793
aF1.0649627263045793
aF1.0649627263045793
aF1.0649627263045793
aF1.0649627263045793
aF1.0649627263045793
aF1.0649627263045793
aF1.0649627263045793
aF1.0649627263045793
aF1.0649627263045793
aF1.0649627263045793
aF1.0649627263045793
aF1.0649627263045793
aF1.0649627263045793
aF1.0649627263045793
aF1.0649627263045793
aF1.0649627263045793
aF1.0649627263045793
aF1.0649627263045793
aF1.0649627263045793
aF1.0649627263045793
aF1.0649627263045793
aF1.0649627263045793
aF1.0649627263045793
aF1.0649627263045793
aF1.0649627263045793
aF1.0649627263045793
aF1.0649627263045793
aF1.0649627263045793
aF1.0649627263045793
aF1.0649627263045793
aF1.0649627263045793
aF1.0649627263045793
aF1.0649627263045793
aF1.0649627263045793
aF1.0649627263045793
aF1.0649627263045793
aF1.0649627263045793
aF1.0649627263045793
aF1.0649627263045793
aF1.0649627263045793
aF1.0649627263045793
aF1.0649627263045793
aF1.0649627263045793
aF1.0649627263045793
aF1.0649627263045793
aF1.0649627263045793
aF1.0649627263045793
aF1.0649627263045793
aF1.0649627263045793
aF1.0649627263045793
aF1.0649627263045793
aF1.0649627263045793
aF1.0649627263045793
aF1.0649627263045793
aF1.0649627263045793
aF1.0649627263045793
aF1.0649627263045793
aF1.0649627263045793
aF1.0649627263045793
aF1.0649627263045793
aF1.0649627263045793
aF1.0649627263045793
aF1.0649627263045793
aF1.0649627263045793
aF1.0649627263045793
aF1.0649627263045793
aF1.0649627263045793
aF1.0649627263045793
aF1.0649627263045793
aF1.0649627263045793
aF1.0649627263045793
aF1.0649627263045793
aF1.0649627263045793
aF1.0649627263045793
aF1.0649627263045793
aF1.0649627263045793
aF1.0649627263045793
aF1.0649627263045793
aF1.0649627263045793
aF1.0649627263045793
aF1.0649627263045793
aF1.0649627263045793
aF1.0649627263045793
aF1.0649627263045793
aF1.0649627263045793
aF1.0649627263045793
aF1.0649627263045793
aF1.0649627263045793
aF1.0649627263045793
aF1.0649627263045793
aF1.0649627263045793
aF1.0649627263045793
aF1.0649627263045793
aF1.0649627263045793
aF1.0649627263045793
aF1.0649627263045793
aF1.0649627263045793
aF1.0649627263045793
aF1.0649627263045793
aF1.0649627263045793
aF1.0649627263045793
aF1.0649627263045793
aF1.0649627263045793
aF1.0649627263045793
aF1.0649627263045793
aF1.0649627263045793
aF1.0649627263045793
aF1.0649627263045793
aF1.0649627263045793
aF1.0649627263045793
aF1.0649627263045793
aF1.0649627263045793
aF1.0649627263045793
aF1.0649627263045793
aF1.0649627263045793
aF1.0649627263045793
aF1.0649627263045793
aF1.0649627263045793
aF1.0649627263045793
aF1.0649627263045793
aF1.0649627263045793
aF1.0649627263045793
aF1.0649627263045793
aF1.0649627263045793
aF1.0649627263045793
aF1.0649627263045793
aF1.0649627263045793
aF1.0649627263045793
aF1.0649627263045793
aF1.0649627263045793
aF1.0649627263045793
aF1.0649627263045793
aF1.0649627263045793
aF1.0649627263045793
aF1.0649627263045793
aF1.0649627263045793
aF1.0649627263045793
aF1.0649627263045793
aF1.0649627263045793
aF1.0649627263045793
aF1.0649627263045793
aF1.0649627263045793
aF1.0649627263045793
aF1.0649627263045793
aF1.0649627263045793
aF1.0649627263045793
aF1.0649627263045793
aF1.0649627263045793
aF1.0649627263045793
aF1.0649627263045793
aF1.0649627263045793
aF1.0649627263045793
aF1.0649627263045793
aF1.0649627263045793
aF1.0649627263045793
aF1.0649627263045793
aF1.0649627263045793
aF1.0649627263045793
aF1.0649627263045793
aF1.0649627263045793
aF1.0649627263045793
aF1.0649627263045793
aF1.0649627263045793
aF1.0649627263045793
aF1.0649627263045793
aF1.0649627263045793
aF1.0649627263045793
aF1.0649627263045793
aF1.0649627263045793
aF1.0649627263045793
aF1.0649627263045793
aF1.0649627263045793
aF1.0649627263045793
aF1.0649627263045793
aF1.0649627263045793
aF1.0649627263045793
aF1.0649627263045793
aF1.0649627263045793
aF1.0649627263045793
aF1.0649627263045793
aF1.0649627263045793
aF1.0649627263045793
aF1.0649627263045793
aF1.0649627263045793
aF1.0649627263045793
aF1.0649627263045793
aF1.0649627263045793
aF1.0649627263045793
aF1.0649627263045793
aF1.0649627263045793
aF1.0649627263045793
aF1.0649627263045793
aF1.0649627263045793
aF1.0649627263045793
aF1.0649627263045793
aF1.0649627263045793
aF1.0649627263045793
aF1.0649627263045793
aF1.0649627263045793
aF1.0649627263045793
aF1.0649627263045793
aF1.0649627263045793
aF1.0649627263045793
aF1.0649627263045793
aF1.0649627263045793
aF1.0649627263045793
aF1.0649627263045793
aF1.0649627263045793
aF1.0649627263045793
aF1.0649627263045793
aF1.0649627263045793
aF1.0649627263045793
aF1.0649627263045793
aF1.0649627263045793
aF1.0649627263045793
aF1.0649627263045793
aF1.0649627263045793
aF1.0649627263045793
aF1.0649627263045793
aF1.0649627263045793
aF1.0649627263045793
aF1.0649627263045793
aF1.0649627263045793
aF1.0649627263045793
aF1.0649627263045793
aF1.0649627263045793
aF1.0649627263045793
aF1.0649627263045793
aF1.0649627263045793
aF1.0649627263045793
aF1.0649627263045793
aF1.0649627263045793
aF1.0649627263045793
aF1.0649627263045793
aF1.0649627263045793
aF1.0649627263045793
aF1.0649627263045793
aF1.0649627263045793
aF1.0649627263045793
aF1.0649627263045793
aF1.0649627263045793
aF1.0649627263045793
aF1.0649627263045793
aF1.0649627263045793
aF1.0649627263045793
aF1.0649627263045793
aF1.0649627263045793
aF1.0649627263045793
aF1.0649627263045793
aF1.0649627263045793
aF1.0649627263045793
aF1.0649627263045793
aF1.0649627263045793
aF1.0649627263045793
aF1.0649627263045793
aF1.0649627263045793
aF1.0649627263045793
aF1.0649627263045793
aF1.0649627263045793
aF1.0649627263045793
aF1.0649627263045793
aF1.0649627263045793
aF1.0649627263045793
aF1.0649627263045793
aF1.0649627263045793
aF1.0649627263045793
aF1.0649627263045793
aF1.0649627263045793
aF1.0649627263045793
aF1.0649627263045793
aF1.0649627263045793
aF1.0649627263045793
aF1.0649627263045793
aF1.0649627263045793
aF1.0649627263045793
aF1.0649627263045793
aF1.0649627263045793
aF1.0649627263045793
aF1.0649627263045793
aF1.0649627263045793
aF1.0649627263045793
aF1.0649627263045793
aF1.0649627263045793
aF1.0649627263045793
aF1.0649627263045793
aF1.0649627263045793
aF1.0649627263045793
aF1.0649627263045793
aF1.0649627263045793
aF1.0649627263045793
aF1.0649627263045793
aF1.0649627263045793
aF1.0649627263045793
aF1.0649627263045793
aF1.0649627263045793
aF1.0649627263045793
aF1.0649627263045793
aF1.0649627263045793
aF1.0649627263045793
aF1.0649627263045793
aF1.0649627263045793
aF1.0649627263045793
aF1.0649627263045793
aF1.0649627263045793
aF1.0649627263045793
aF1.0649627263045793
aF1.0649627263045793
aF1.0649627263045793
aF1.0649627263045793
aF1.0649627263045793
aF1.0649627263045793
aF1.0649627263045793
aF1.0649627263045793
aF1.0649627263045793
aF1.0649627263045793
aF1.0649627263045793
aF1.0649627263045793
aF1.0649627263045793
aF1.0649627263045793
aF1.0649627263045793
aF1.0649627263045793
aF1.0649627263045793
aF1.0649627263045793
aF1.0649627263045793
aF1.0649627263045793
aF1.0649627263045793
aF1.0649627263045793
aF1.0649627263045793
aF1.0649627263045793
aF1.0649627263045793
aF1.0649627263045793
aF1.0649627263045793
aF1.0649627263045793
aF1.0649627263045793
aF1.0649627263045793
aF1.0649627263045793
aF1.0649627263045793
aF1.0649627263045793
aF1.0649627263045793
aF1.0649627263045793
aF1.0649627263045793
aF1.0649627263045793
aF1.0649627263045793
aF1.0649627263045793
aF1.0649627263045793
aF1.0649627263045793
aF1.0649627263045793
aF1.0649627263045793
aF1.0649627263045793
aF1.0649627263045793
aF1.0649627263045793
aF1.0649627263045793
aF1.0649627263045793
aF1.0649627263045793
aF1.0649627263045793
aF1.0649627263045793
aF1.0649627263045793
aF1.0649627263045793
aF1.0649627263045793
aF1.0649627263045793
aF1.0649627263045793
aF1.0649627263045793
aF1.0649627263045793
aF1.0649627263045793
aF1.0649627263045793
aF1.0649627263045793
aF1.0649627263045793
aF1.0649627263045793
aF1.0649627263045793
aF1.0649627263045793
aF1.0649627263045793
aF1.0649627263045793
aF1.0649627263045793
aF1.0649627263045793
aF1.0649627263045793
aF1.0649627263045793
aF1.0649627263045793
aF1.0649627263045793
aF1.0649627263045793
aF1.0649627263045793
aF1.0649627263045793
aF1.0649627263045793
aF1.0649627263045793
aF1.0649627263045793
aF1.0649627263045793
aF1.0649627263045793
aF1.0649627263045793
aF1.0649627263045793
aF1.0649627263045793
aF1.0649627263045793
aF1.0649627263045793
aF1.0649627263045793
aF1.0649627263045793
aF1.0649627263045793
aF1.0649627263045793
aF1.0649627263045793
aF1.0649627263045793
aF1.0649627263045793
aF1.0649627263045793
aF1.0649627263045793
aF1.0649627263045793
aF1.0649627263045793
aF1.0649627263045793
aF1.0649627263045793
aF1.0649627263045793
aF1.0649627263045793
aF1.0649627263045793
aF1.0649627263045793
aF1.0649627263045793
aF1.0649627263045793
aF1.0649627263045793
aF1.0649627263045793
aF1.0649627263045793
aF1.0649627263045793
aF1.0649627263045793
aF1.0649627263045793
aF1.0649627263045793
aF1.0649627263045793
aF1.0649627263045793
aF1.0649627263045793
aF1.0649627263045793
aF1.0649627263045793
aF1.0649627263045793
aF1.0649627263045793
aF1.0649627263045793
aF1.0649627263045793
aF1.0649627263045793
aF1.0649627263045793
aF1.0649627263045793
aF1.0649627263045793
aF1.0649627263045793
aF1.0649627263045793
aF1.0649627263045793
aF1.0649627263045793
aF1.0649627263045793
aF1.0649627263045793
aF1.0649627263045793
aF1.0649627263045793
aF1.0649627263045793
aF1.0649627263045793
aF1.0649627263045793
aF1.0649627263045793
aF1.0649627263045793
aF1.0649627263045793
aF1.0649627263045793
aF1.0649627263045793
aF1.0649627263045793
aF1.0649627263045793
aF1.0649627263045793
aF1.0649627263045793
aF1.0649627263045793
aF1.0649627263045793
aF1.0649627263045793
aF1.0649627263045793
aF1.0649627263045793
aF1.0649627263045793
aF1.0649627263045793
aF1.0649627263045793
aF1.0649627263045793
aF1.0649627263045793
aF1.0649627263045793
aF1.0649627263045793
aF1.0649627263045793
aF1.0649627263045793
aF1.0649627263045793
aF1.0649627263045793
aF1.0649627263045793
aF1.0649627263045793
aF1.0649627263045793
aF1.0649627263045793
aF1.0649627263045793
aF1.0649627263045793
aF1.0649627263045793
aF1.0649627263045793
aF1.0649627263045793
aF1.0649627263045793
aF1.0649627263045793
aF1.0649627263045793
aF1.0649627263045793
aF1.0649627263045793
aF1.0649627263045793
aF1.0649627263045793
aF1.0649627263045793
aF1.0649627263045793
aF1.0649627263045793
aF1.0649627263045793
aF1.0649627263045793
aF1.0649627263045793
aF1.0649627263045793
aF1.0649627263045793
aF1.0649627263045793
aF1.0649627263045793
aF1.0649627263045793
aF1.0649627263045793
aF1.0649627263045793
aF1.0649627263045793
aF1.0649627263045793
aF1.0649627263045793
aF1.0649627263045793
aF1.0649627263045793
aF1.0649627263045793
aF1.0649627263045793
aF1.0649627263045793
aF1.0649627263045793
aF1.0649627263045793
aF1.0649627263045793
aF1.0649627263045793
aF1.0649627263045793
aF1.0649627263045793
aF1.0649627263045793
aF1.0649627263045793
aF1.0649627263045793
aF1.0649627263045793
aF1.0649627263045793
aF1.0649627263045793
aF1.0649627263045793
aF1.0649627263045793
aF1.0649627263045793
aF1.0649627263045793
aF1.0649627263045793
aF1.0649627263045793
aF1.0649627263045793
aF1.0649627263045793
aF1.0649627263045793
aF1.0649627263045793
aF1.0649627263045793
aF1.0649627263045793
aF1.0649627263045793
aF1.0649627263045793
aF1.0649627263045793
aF1.0649627263045793
aF1.0649627263045793
aF1.0649627263045793
aF1.0649627263045793
aF1.0649627263045793
aF1.0649627263045793
aF1.0649627263045793
aF1.0649627263045793
aF1.0649627263045793
aF1.0649627263045793
aF1.0649627263045793
aF1.0649627263045793
aF1.0649627263045793
aF1.0649627263045793
aF1.0649627263045793
aF1.0649627263045793
aF1.0649627263045793
aF1.0649627263045793
aF1.0649627263045793
aF1.0649627263045793
aF1.0649627263045793
aF1.0649627263045793
aF1.0649627263045793
aF1.0649627263045793
aF1.0649627263045793
aF1.0649627263045793
aF1.0649627263045793
aF1.0649627263045793
aF1.0649627263045793
aF1.0649627263045793
aF1.0649627263045793
aF1.0649627263045793
aF1.0649627263045793
aF1.0649627263045793
aF1.0649627263045793
aF1.0649627263045793
aF1.0649627263045793
aF1.0649627263045793
aF1.0649627263045793
aF1.0649627263045793
aF1.0649627263045793
aF1.0649627263045793
aF1.0649627263045793
aF1.0649627263045793
aF1.0649627263045793
aF1.0649627263045793
aF1.0649627263045793
aF1.0649627263045793
aF1.0649627263045793
aF1.0649627263045793
aF1.0649627263045793
aF1.0649627263045793
aF1.0649627263045793
aF1.0649627263045793
aF1.0649627263045793
aF1.0649627263045793
aF1.0649627263045793
aF1.0649627263045793
aF1.0649627263045793
aF1.0649627263045793
aF1.0649627263045793
aF1.0649627263045793
aF1.0649627263045793
aF1.0649627263045793
aF1.0649627263045793
aF1.0649627263045793
aF1.0649627263045793
aF1.0649627263045793
aF1.0649627263045793
aF1.0649627263045793
aF1.0649627263045793
aF1.0649627263045793
aF1.0649627263045793
aF1.0649627263045793
aF1.0649627263045793
aF1.0649627263045793
aF1.0649627263045793
aF1.0649627263045793
aF1.0649627263045793
aF1.0649627263045793
aF1.0649627263045793
aF1.0649627263045793
aF1.0649627263045793
aF1.0649627263045793
aF1.0649627263045793
aF1.0649627263045793
aF1.0649627263045793
aF1.0649627263045793
aF1.0649627263045793
aF1.0649627263045793
aF1.0649627263045793
aF1.0649627263045793
aF1.0649627263045793
aF1.0649627263045793
aF1.0649627263045793
aF1.0649627263045793
aF1.0649627263045793
aF1.0649627263045793
aF1.0649627263045793
aF1.0649627263045793
aF1.0649627263045793
aF1.0649627263045793
aF1.0649627263045793
aF1.0649627263045793
aF1.0649627263045793
aF1.0649627263045793
aF1.0649627263045793
aF1.0649627263045793
aF1.0649627263045793
aF1.0649627263045793
aF1.0649627263045793
aF1.0649627263045793
aF1.0649627263045793
aF1.0649627263045793
aF1.0649627263045793
aF1.0649627263045793
aF1.0649627263045793
aF1.0649627263045793
aF1.0649627263045793
aF1.0649627263045793
aF1.0649627263045793
aF1.0649627263045793
aF1.0649627263045793
aF1.0649627263045793
aF1.0649627263045793
aF1.0649627263045793
aF1.0649627263045793
aF1.0649627263045793
aF1.0649627263045793
aF1.0649627263045793
aF1.0649627263045793
aF1.0649627263045793
aF1.0649627263045793
aF1.0649627263045793
aF1.0649627263045793
aF1.0649627263045793
aF1.0649627263045793
aF1.0649627263045793
aF1.0649627263045793
aF1.0649627263045793
aF1.0649627263045793
aF1.0649627263045793
aF1.0649627263045793
aF1.0649627263045793
aF1.0649627263045793
aF1.0649627263045793
aF1.0649627263045793
aF1.0649627263045793
aF1.0649627263045793
aF1.0649627263045793
aF1.0649627263045793
aF1.0649627263045793
aF1.0649627263045793
aF1.0649627263045793
aF1.0649627263045793
aF1.0649627263045793
aF1.0649627263045793
aF1.0649627263045793
aF1.0649627263045793
aF1.0649627263045793
aF1.0649627263045793
aF1.0649627263045793
aF1.0649627263045793
aF1.0649627263045793
aF1.0649627263045793
aF1.0649627263045793
aF1.0649627263045793
aF1.0649627263045793
aF1.0649627263045793
aF1.0649627263045793
aF1.0649627263045793
aF1.0649627263045793
aF1.0649627263045793
aF1.0649627263045793
aF1.0649627263045793
aF1.0649627263045793
aF1.0649627263045793
aF1.0649627263045793
aF1.0649627263045793
aF1.0649627263045793
aF1.0649627263045793
aF1.0649627263045793
aF1.0649627263045793
aF1.0649627263045793
aF1.0649627263045793
aF1.0649627263045793
aF1.0649627263045793
aF1.0649627263045793
aF1.0649627263045793
aF1.0649627263045793
aF1.0649627263045793
aF1.0649627263045793
aF1.0649627263045793
aF1.0649627263045793
aF1.0649627263045793
aF1.0649627263045793
aF1.0649627263045793
aF1.0649627263045793
aF1.0649627263045793
aF1.0649627263045793
aF1.0649627263045793
aF1.0649627263045793
aF1.0649627263045793
aF1.0649627263045793
aF1.0649627263045793
aF1.0649627263045793
aF1.0649627263045793
aF1.0649627263045793
aF1.0649627263045793
aF1.0649627263045793
aF1.0649627263045793
aF1.0649627263045793
aF1.0649627263045793
aF1.0649627263045793
aF1.0649627263045793
aF1.0649627263045793
aF1.0649627263045793
aF1.0649627263045793
aF1.0649627263045793
aF1.0649627263045793
aF1.0649627263045793
aF1.0649627263045793
aF1.0649627263045793
aF1.0649627263045793
aF1.0649627263045793
aF1.0649627263045793
aF1.0649627263045793
aF1.0649627263045793
aF1.0649627263045793
aF1.0649627263045793
aF1.0649627263045793
aF1.0649627263045793
aF1.0649627263045793
aF1.0649627263045793
aF1.0649627263045793
aF1.0649627263045793
aF1.0649627263045793
aF1.0649627263045793
aF1.0649627263045793
aF1.0649627263045793
aF1.0649627263045793
aF1.0649627263045793
aF1.0649627263045793
aF1.0649627263045793
aF1.0649627263045793
aF1.0649627263045793
aF1.0649627263045793
aF1.0649627263045793
aF1.0649627263045793
aF1.0649627263045793
aF1.0649627263045793
aF1.0649627263045793
aF1.0649627263045793
aF1.0649627263045793
aF1.0649627263045793
aF1.0649627263045793
aF1.0649627263045793
aF1.0649627263045793
aF1.0649627263045793
aF1.0649627263045793
aF1.0649627263045793
aF1.0649627263045793
aF1.0649627263045793
aF1.0649627263045793
aF1.0649627263045793
aF1.0649627263045793
aF1.0649627263045793
aF1.0649627263045793
aF1.0649627263045793
aF1.0649627263045793
aF1.0649627263045793
aF1.0649627263045793
aF1.0649627263045793
aF1.0649627263045793
aF1.0649627263045793
aF1.0649627263045793
aF1.0649627263045793
aF1.0649627263045793
aF1.0649627263045793
aF1.0649627263045793
aF1.0649627263045793
aF1.0649627263045793
aF1.0649627263045793
aF1.0649627263045793
aF1.0649627263045793
aF1.0649627263045793
aF1.0649627263045793
aF1.0649627263045793
aF1.0649627263045793
aF1.0649627263045793
aF1.0649627263045793
aF1.0649627263045793
aF1.0649627263045793
aF1.0649627263045793
aF1.0649627263045793
aF1.0649627263045793
aF1.0649627263045793
aF1.0649627263045793
aF1.0649627263045793
aF1.0649627263045793
aF1.0649627263045793
aF1.0649627263045793
aF1.0649627263045793
aF1.0649627263045793
aF1.0649627263045793
aF1.0649627263045793
aF1.0649627263045793
aF1.0649627263045793
aF1.0649627263045793
aF1.0649627263045793
aF1.0649627263045793
aF1.0649627263045793
aF1.0649627263045793
aF1.0649627263045793
aF1.0649627263045793
aF1.0649627263045793
aF1.0649627263045793
aF1.0649627263045793
aF1.0649627263045793
atp4
.