(S'vowel.scale'
p0
(lp1
I382
aI498
aI520
aI525
aI196
aI207
aI229
aI256
aI369
aI493
aI260
aI221
aI422
aI523
aI479
aI468
aI512
aI380
aI388
aI321
aI464
aI355
aI502
aI87
aI482
aI499
aI518
aI341
aI254
aI457
aI446
aI435
aI433
aI427
aI514
aI143
aI417
aI490
aI261
aI416
aI326
aI393
aI250
aI249
aI363
aI151
aI370
aI94
aI441
aI371
aI302
aI385
aI116
aI346
aI504
aI335
aI315
aI314
aI357
aI192
aI324
aI281
aI259
aI494
aI501
aI325
aI304
aI415
aI282
aI61
aI239
aI138
aI62
aI448
aI424
aI270
aI268
aI336
aI193
aI194
aI182
aI251
aI394
aI158
aI50
aI271
aI127
aI139
aI227
aI461
aI136
aI455
aI413
aI150
aI131
aI17
aI303
aI51
aI52
aI263
aI330
aI217
aI219
aI175
aI83
aI218
aI243
aI471
aI419
aI414
aI459
aI443
aI489
aI425
aI402
aI444
aI292
aI287
aI313
aI264
aI352
aI386
aI410
aI453
aI476
aI399
aI451
aI485
aI183
aI104
aI478
aI510
aI345
aI161
aI392
aI185
aI368
aI508
aI405
aI473
aI362
aI358
aI253
aI374
aI377
aI105
aI500
aI411
aI323
aI312
aI191
aI232
aI438
aI43
aI88
aI195
aI309
aI99
aI40
aI173
aI147
aI356
aI389
aI400
aI276
aI334
aI257
aI246
aI235
aI1
aI279
aI202
aI145
aI390
aI199
aI210
aI78
aI460
aI450
aI98
aI467
aI522
aI454
aI511
aI190
aI157
aI153
aI92
aI208
aI39
aI29
aI162
aI137
aI452
aI165
aI488
aI291
aI216
aI28
aI18
aI280
aI347
aI187
aI429
aI174
aI121
aI110
aI55
aI275
aI231
aI245
aI237
aI135
aI35
aI486
aI242
aI89
aI507
aI205
aI215
aI47
aI378
aI317
aI126
aI176
aI130
aI177
aI6
aI348
aI470
aI7
aI181
aI148
aI383
aI406
aI360
aI45
aI54
aI359
aI77
aI430
aI320
aI93
aI203
aI456
aI408
aI404
aI437
aI367
aI379
aI289
aI134
aI111
aI172
aI156
aI426
aI166
aI65
aI76
aI44
aI24
aI439
aI277
aI463
aI188
aI384
aI197
aI108
aI506
aI395
aI204
aI57
aI189
aI327
aI220
aI516
aI428
aI252
aI248
aI91
aI338
aI63
aI293
aI340
aI33
aI241
aI140
aI349
aI331
aI462
aI283
aI186
aI262
aI2
aI403
aI56
aI343
aI22
aI120
aI396
aI373
aI149
aI265
aI128
aI58
aI41
aI119
aI391
aI59
aI503
aI73
aI301
aI12
aI184
aI180
aI269
aI48
aI159
aI521
aI14
aI310
aI300
aI112
aI332
aI213
aI115
aI5
aI11
aI329
aI86
aI311
aI409
aI3
aI351
aI164
aI37
aI72
aI294
aI372
aI179
aI60
aI244
aI354
aI505
aI36
aI125
aI214
aI445
aI278
aI297
aI398
aI513
aI118
aI361
aI364
aI458
aI19
aI66
aI32
aI42
aI144
aI178
aI9
aI117
aI85
aI412
aI322
aI266
aI171
aI290
aI146
aI258
aI434
aI201
aI483
aI167
aI75
aI133
aI106
aI168
aI298
aI407
aI491
aI477
aI129
aI397
aI333
aI519
aI20
aI31
aI233
aI69
aI255
aI497
aI0
aI487
aI46
aI273
aI318
aI49
aI30
aI223
aI247
aI103
aI344
aI420
aI305
aI163
aI230
aI240
aI492
aI474
aI124
aI222
aI387
aI109
aI517
aI328
aI285
aI68
aI234
aI74
aI381
aI101
aI13
aI465
aI8
aI84
aI339
aI423
aI82
aI100
aI228
aI418
aI466
aI350
aI10
aI25
aI442
aI170
aI70
aI480
aI155
aI472
aI286
aI122
aI71
aI284
aI527
aI23
aI67
aI198
aI152
aI211
aI209
aI96
aI81
aI401
aI469
aI495
aI449
aI272
aI107
aI38
aI421
aI4
aI481
aI447
aI375
aI376
aI142
aI224
aI154
aI34
aI97
aI274
aI440
aI53
aI267
aI79
aI475
aI90
aI27
aI212
aI15
aI225
aI316
aI226
aI342
aI308
aI238
aI64
aI206
aI288
aI366
aI114
aI95
aI296
aI307
aI526
aI21
aI509
aI337
aI16
aI80
aI299
aI496
aI236
aI295
aI141
aI436
aI113
aI431
aI123
aI102
aI484
aI353
aI319
aI26
aI365
aI200
aI169
aI160
a(lp2
F1.0326797385620916
aF1.0522875816993464
aF1.0718954248366013
aF1.0784313725490198
aF1.0915032679738563
aF1.1111111111111112
aF1.130718954248366
aF1.1372549019607843
aF1.1372549019607843
aF1.1437908496732025
aF1.1503267973856208
aF1.1568627450980393
aF1.1568627450980393
aF1.1568627450980393
aF1.1568627450980393
aF1.1568627450980393
aF1.1568627450980393
aF1.1699346405228759
aF1.1699346405228759
aF1.1764705882352942
aF1.1830065359477124
aF1.2026143790849675
aF1.2091503267973855
aF1.215686274509804
aF1.222222222222222
aF1.222222222222222
aF1.222222222222222
aF1.222222222222222
aF1.2287581699346406
aF1.2287581699346406
aF1.2287581699346406
aF1.2287581699346406
aF1.2287581699346406
aF1.2287581699346406
aF1.2287581699346406
aF1.2287581699346406
aF1.2287581699346406
aF1.2287581699346406
aF1.2287581699346406
aF1.2287581699346406
aF1.2287581699346406
aF1.2287581699346406
aF1.2352941176470589
aF1.2352941176470589
aF1.2352941176470589
aF1.2418300653594772
aF1.2418300653594772
aF1.2418300653594772
aF1.2418300653594772
aF1.2418300653594772
aF1.2418300653594772
aF1.2418300653594772
aF1.2418300653594772
aF1.2418300653594772
aF1.2418300653594772
aF1.2418300653594772
aF1.2418300653594772
aF1.2418300653594772
aF1.2418300653594772
aF1.2418300653594772
aF1.2418300653594772
aF1.2418300653594772
aF1.2418300653594772
aF1.2418300653594772
aF1.2418300653594772
aF1.2418300653594772
aF1.2418300653594772
aF1.2418300653594772
aF1.2418300653594772
aF1.2418300653594772
aF1.2418300653594772
aF1.2418300653594772
aF1.2483660130718954
aF1.2483660130718954
aF1.2483660130718954
aF1.2483660130718954
aF1.2483660130718954
aF1.2483660130718954
aF1.2483660130718954
aF1.2483660130718954
aF1.2483660130718954
aF1.2418300653594772
aF1.2418300653594772
aF1.2483660130718954
aF1.2483660130718954
aF1.2483660130718954
aF1.2483660130718954
aF1.2483660130718954
aF1.2483660130718954
aF1.2483660130718954
aF1.2483660130718954
aF1.2483660130718954
aF1.2483660130718954
aF1.2483660130718954
aF1.2483660130718954
aF1.2483660130718954
aF1.2483660130718954
aF1.2483660130718954
aF1.2483660130718954
aF1.2483660130718954
aF1.2483660130718954
aF1.2483660130718954
aF1.2483660130718954
aF1.2483660130718954
aF1.2483660130718954
aF1.2483660130718954
aF1.2483660130718954
aF1.2483660130718954
aF1.2483660130718954
aF1.2483660130718954
aF1.2483660130718954
aF1.2483660130718954
aF1.2483660130718954
aF1.2483660130718954
aF1.2483660130718954
aF1.2483660130718954
aF1.2483660130718954
aF1.2483660130718954
aF1.2483660130718954
aF1.2483660130718954
aF1.2483660130718954
aF1.2483660130718954
aF1.2483660130718954
aF1.2483660130718954
aF1.2483660130718954
aF1.2483660130718954
aF1.2549019607843137
aF1.2679738562091503
aF1.2679738562091503
aF1.2679738562091503
aF1.2679738562091503
aF1.2679738562091503
aF1.2679738562091503
aF1.2679738562091503
aF1.2614379084967322
aF1.2679738562091503
aF1.2810457516339868
aF1.2745098039215688
aF1.2745098039215688
aF1.2745098039215688
aF1.2745098039215688
aF1.2745098039215688
aF1.2810457516339868
aF1.2810457516339868
aF1.2810457516339868
aF1.2875816993464053
aF1.2875816993464053
aF1.2875816993464053
aF1.2875816993464053
aF1.2875816993464053
aF1.2875816993464053
aF1.2875816993464053
aF1.2875816993464053
aF1.2875816993464053
aF1.2875816993464053
aF1.2875816993464053
aF1.2875816993464053
aF1.2875816993464053
aF1.2875816993464053
aF1.2875816993464053
aF1.2875816993464053
aF1.2875816993464053
aF1.2875816993464053
aF1.3006535947712419
aF1.3071895424836601
aF1.3071895424836601
aF1.326797385620915
aF1.3398692810457515
aF1.3725490196078431
aF1.3790849673202614
aF1.3790849673202614
aF1.3856209150326797
aF1.3921568627450982
aF1.3921568627450982
aF1.3921568627450982
aF1.3986928104575163
aF1.4052287581699348
aF1.4052287581699348
aF1.4052287581699348
aF1.411764705882353
aF1.411764705882353
aF1.411764705882353
aF1.4248366013071896
aF1.457516339869281
aF1.4705882352941178
aF1.477124183006536
aF1.477124183006536
aF1.477124183006536
aF1.4705882352941178
aF1.4705882352941178
aF1.4705882352941178
aF1.4705882352941178
aF1.4705882352941178
aF1.4640522875816995
aF1.4640522875816995
aF1.4705882352941178
aF1.477124183006536
aF1.4836601307189543
aF1.4836601307189543
aF1.4836601307189543
aF1.4836601307189543
aF1.4836601307189543
aF1.4836601307189543
aF1.4967320261437909
aF1.5032679738562091
aF1.5098039215686274
aF1.522875816993464
aF1.542483660130719
aF1.5490196078431373
aF1.562091503267974
aF1.5751633986928106
aF1.5751633986928106
aF1.5816993464052287
aF1.5882352941176472
aF1.5882352941176472
aF1.5882352941176472
aF1.5882352941176472
aF1.5882352941176472
aF1.5947712418300652
aF1.5947712418300652
aF1.5947712418300652
aF1.5947712418300652
aF1.6013071895424837
aF1.6078431372549018
aF1.6143790849673203
aF1.6209150326797388
aF1.6209150326797388
aF1.6274509803921569
aF1.6274509803921569
aF1.6339869281045754
aF1.647058823529412
aF1.647058823529412
aF1.647058823529412
aF1.65359477124183
aF1.65359477124183
aF1.65359477124183
aF1.6601307189542485
aF1.6666666666666667
aF1.6666666666666667
aF1.6666666666666667
aF1.673202614379085
aF1.673202614379085
aF1.673202614379085
aF1.6666666666666667
aF1.6666666666666667
aF1.6601307189542485
aF1.65359477124183
aF1.65359477124183
aF1.65359477124183
aF1.6601307189542485
aF1.6666666666666667
aF1.673202614379085
aF1.673202614379085
aF1.673202614379085
aF1.6797385620915033
aF1.6797385620915033
aF1.6797385620915033
aF1.6797385620915033
aF1.6797385620915033
aF1.6797385620915033
aF1.6797385620915033
aF1.6797385620915033
aF1.6862745098039216
aF1.6862745098039216
aF1.6862745098039216
aF1.673202614379085
aF1.6666666666666667
aF1.6666666666666667
aF1.6601307189542485
aF1.65359477124183
aF1.647058823529412
aF1.6405228758169934
aF1.647058823529412
aF1.65359477124183
aF1.6601307189542485
aF1.6601307189542485
aF1.6601307189542485
aF1.6601307189542485
aF1.65359477124183
aF1.65359477124183
aF1.647058823529412
aF1.65359477124183
aF1.65359477124183
aF1.65359477124183
aF1.65359477124183
aF1.647058823529412
aF1.647058823529412
aF1.6405228758169934
aF1.6405228758169934
aF1.6405228758169934
aF1.6405228758169934
aF1.6405228758169934
aF1.6405228758169934
aF1.6601307189542485
aF1.647058823529412
aF1.6405228758169934
aF1.6405228758169934
aF1.6405228758169934
aF1.647058823529412
aF1.647058823529412
aF1.647058823529412
aF1.6405228758169934
aF1.6339869281045754
aF1.65359477124183
aF1.647058823529412
aF1.65359477124183
aF1.65359477124183
aF1.647058823529412
aF1.65359477124183
aF1.6405228758169934
aF1.647058823529412
aF1.6405228758169934
aF1.6405228758169934
aF1.6339869281045754
aF1.6405228758169934
aF1.6339869281045754
aF1.6209150326797388
aF1.6209150326797388
aF1.6143790849673203
aF1.6143790849673203
aF1.6143790849673203
aF1.6339869281045754
aF1.6339869281045754
aF1.6405228758169934
aF1.647058823529412
aF1.65359477124183
aF1.6601307189542485
aF1.6601307189542485
aF1.6601307189542485
aF1.65359477124183
aF1.65359477124183
aF1.65359477124183
aF1.6601307189542485
aF1.6601307189542485
aF1.6666666666666667
aF1.673202614379085
aF1.6666666666666667
aF1.6666666666666667
aF1.673202614379085
aF1.6666666666666667
aF1.673202614379085
aF1.6666666666666667
aF1.6666666666666667
aF1.6601307189542485
aF1.6601307189542485
aF1.6601307189542485
aF1.6601307189542485
aF1.6601307189542485
aF1.6601307189542485
aF1.6601307189542485
aF1.6601307189542485
aF1.6601307189542485
aF1.6666666666666667
aF1.6666666666666667
aF1.6666666666666667
aF1.6666666666666667
aF1.6601307189542485
aF1.6666666666666667
aF1.6797385620915033
aF1.6862745098039216
aF1.6797385620915033
aF1.6797385620915033
aF1.6797385620915033
aF1.673202614379085
aF1.6797385620915033
aF1.673202614379085
aF1.6666666666666667
aF1.6862745098039216
aF1.6797385620915033
aF1.673202614379085
aF1.6797385620915033
aF1.6797385620915033
aF1.673202614379085
aF1.6797385620915033
aF1.6666666666666667
aF1.6601307189542485
aF1.65359477124183
aF1.6601307189542485
aF1.6601307189542485
aF1.6601307189542485
aF1.6601307189542485
aF1.6666666666666667
aF1.6666666666666667
aF1.6666666666666667
aF1.673202614379085
aF1.6862745098039216
aF1.6797385620915033
aF1.7124183006535947
aF1.7124183006535947
aF1.7058823529411766
aF1.7058823529411766
aF1.6993464052287581
aF1.6928104575163399
aF1.6993464052287581
aF1.6993464052287581
aF1.7058823529411766
aF1.7189542483660132
aF1.7189542483660132
aF1.7189542483660132
aF1.7124183006535947
aF1.7124183006535947
aF1.7124183006535947
aF1.7058823529411766
aF1.7124183006535947
aF1.7058823529411766
aF1.738562091503268
aF1.7320261437908497
aF1.7254901960784315
aF1.7254901960784315
aF1.7124183006535947
aF1.7058823529411766
aF1.6928104575163399
aF1.6862745098039216
aF1.6666666666666667
aF1.673202614379085
aF1.6666666666666667
aF1.6601307189542485
aF1.6797385620915033
aF1.6797385620915033
aF1.673202614379085
aF1.6601307189542485
aF1.673202614379085
aF1.6601307189542485
aF1.6666666666666667
aF1.6601307189542485
aF1.6601307189542485
aF1.6601307189542485
aF1.6601307189542485
aF1.647058823529412
aF1.647058823529412
aF1.65359477124183
aF1.647058823529412
aF1.6339869281045754
aF1.6405228758169934
aF1.6405228758169934
aF1.6339869281045754
aF1.6339869281045754
aF1.6339869281045754
aF1.6601307189542485
aF1.65359477124183
aF1.65359477124183
aF1.647058823529412
aF1.6666666666666667
aF1.6666666666666667
aF1.6601307189542485
aF1.6797385620915033
aF1.6797385620915033
aF1.673202614379085
aF1.647058823529412
aF1.6405228758169934
aF1.647058823529412
aF1.6666666666666667
aF1.6666666666666667
aF1.65359477124183
aF1.65359477124183
aF1.65359477124183
aF1.647058823529412
aF1.6339869281045754
aF1.6405228758169934
aF1.6274509803921569
aF1.647058823529412
aF1.65359477124183
aF1.647058823529412
aF1.65359477124183
aF1.6601307189542485
aF1.65359477124183
aF1.6339869281045754
aF1.6209150326797388
aF1.5947712418300652
aF1.6078431372549018
aF1.6078431372549018
aF1.5947712418300652
aF1.5555555555555556
aF1.5490196078431373
aF1.5686274509803921
aF1.5751633986928106
aF1.562091503267974
aF1.5490196078431373
aF1.542483660130719
aF1.542483660130719
aF1.5359477124183005
aF1.5490196078431373
aF1.562091503267974
aF1.5555555555555556
aF1.5555555555555556
aF1.562091503267974
aF1.5490196078431373
aF1.5359477124183005
aF1.516339869281046
aF1.5490196078431373
aF1.522875816993464
aF1.522875816993464
aF1.516339869281046
aF1.4901960784313726
aF1.542483660130719
aF1.522875816993464
aF1.5294117647058825
aF1.4640522875816995
aF1.4444444444444444
aF1.4052287581699348
aF1.4052287581699348
aF1.3986928104575163
aF1.3660130718954249
aF1.3333333333333335
aF1.2745098039215688
aF1.2745098039215688
aF1.3006535947712419
aF1.2875816993464053
aF1.2287581699346406
aF1.2352941176470589
aF1.2483660130718954
aF1.1895424836601307
aF1.1830065359477124
aF1.196078431372549
aF1.1568627450980393
aF1.130718954248366
aF1.1176470588235294
aF1.0915032679738563
aF1.0457516339869282
aF0.9738562091503269
aF0.934640522875817
aF0.8758169934640523
aF0.8954248366013072
a(lp3
F1.005463004855254
aF1.007374531480454
aF1.016451448906965
aF1.0076335877862594
aF1.0023747473853963
aF0.9970957581707367
aF0.988189971379977
aF0.9828633999452505
aF0.9956184559685681
aF1.0011679193173855
aF0.9958355417581586
aF0.9977654555987752
aF1.0106485160487857
aF1.008959109350984
aF1.010925891240557
aF1.012900355871886
aF1.0075283269842816
aF1.002135231316726
aF1.0077956218668942
aF1.0023818197102587
aF0.9932405399145066
aF0.9989169116509362
aF0.989732567562806
aF0.9916963226571768
aF1.0048746665912
aF0.9993903389998724
aF1.0051356362009078
aF0.9996298932384342
aF0.997867621363724
aF1.003644471122926
aF0.998102493967363
aF1.003903111009069
aF1.0059311981020167
aF1.023182099788206
aF1.0138234211343147
aF1.015884037843937
aF1.0179530481043118
aF1.0200305033045247
aF1.0259589983188875
aF1.0319117904439647
aF1.0301723822955564
aF1.0284258160889241
aF1.0421689841141726
aF1.0482044645745714
aF1.0387038305961407
aF1.0408588177965477
aF1.0352098608326368
aF1.0373665480427048
aF1.0277639506979994
aF1.022052144909841
aF1.0241948118803017
aF1.0223989951852628
aF1.0285072110882187
aF1.0227487724672282
aF1.040801125548291
aF1.0430062126786899
aF1.0412312713919805
aF1.0514424169001289
aF1.0536842983860566
aF1.0479058308239804
aF1.0461261783017215
aF1.0564354772196172
aF1.0546665136034898
aF1.0569395017793595
aF1.0551639854576758
aF1.061514997458058
aF1.0475139145135517
aF1.0457063283304966
aF1.0438908659549229
aF1.0502727315109792
aF1.0566825264567776
aF1.0713616782168947
aF1.0695866411168902
aF1.0512486870365436
aF1.066013056491716
aF1.0766856674959846
aF1.0749066921274195
aF1.068944246737841
aF1.0838795583701226
aF1.0862989323843417
aF1.09713630609759
aF1.0953832405087531
aF1.0936222959734496
aF1.1087813792440127
aF1.1070427287260107
aF1.1052962110110949
aF1.0992809935362045
aF1.0932384341637011
aF1.0957287267244384
aF1.1025203529469116
aF1.1222424000586335
aF1.1075777857585947
aF1.114443489998773
aF1.1040228282795153
aF1.1065725345803916
aF1.1047844998022935
aF1.1160670789606228
aF1.1099230323595133
aF1.1125102655351766
aF1.1151095885854925
aF1.1089201330144098
aF1.1071124254423337
aF1.1052962110110949
aF1.103471429530652
aF1.110522197824386
aF1.1176063820815976
aF1.1068714550172865
aF1.1050330452465684
aF1.0897323741496021
aF1.0833489417493913
aF1.0904529045802505
aF1.1066246920339446
aF1.1002358187197188
aF1.0983547372221363
aF1.1055638372123082
aF1.1036865563348652
aF1.115515494713874
aF1.1136533287041055
aF1.1071879160177154
aF1.1145070127695207
aF1.1126286428777532
aF1.115369107515383
aF1.122762620271517
aF1.1301927345759486
aF1.1283346432009043
aF1.1311414457959315
aF1.1292764529956247
aF1.132099644128114
aF1.1396462686966526
aF1.1236252436560024
aF1.1169895210520184
aF1.1103202846975089
aF1.117888193161854
aF1.1207254728399298
aF1.1140148325228871
aF1.10247657781974
aF1.110101846711143
aF1.1033123460169723
aF1.1109789678800466
aF1.108999523058297
aF1.1167204612541035
aF1.1147456345767337
aF1.1176410777834267
aF1.115658362989324
aF1.113665294593163
aF1.1264183637346052
aF1.1441701459915377
aF1.1422363738527814
aF1.1452501901426304
aF1.138338134779416
aF1.1363735050076933
aF1.1144090255167716
aF1.137423487544484
aF1.1354406531295793
aF1.1435222730004866
aF1.1364940879347951
aF1.1496868135557452
aF1.1477156872174665
aF1.1406417267019646
aF1.1386353086801795
aF1.1622174600250177
aF1.155125138556677
aF1.1479939550528933
aF1.1459856869109537
aF1.149142672274345
aF1.152317099545821
aF1.1450991216569237
aF1.1534994068801898
aF1.156712497150051
aF1.1546949243523728
aF1.1526660486258562
aF1.1506257747211004
aF1.1485740063154728
aF1.157126485312745
aF1.1497585515106912
aF1.1476868327402134
aF1.15630988228853
aF1.1810879511947128
aF1.1790881930069645
aF1.1986746840103082
aF1.202129077912355
aF1.2164647316561414
aF1.2090979421321366
aF1.2126127617313582
aF1.1942354979612588
aF1.1922332521695698
aF1.1902192630008037
aF1.188193426836927
aF1.191698422196328
aF1.19522415717324
aF1.1876194599617729
aF1.1855617691916625
aF1.1778828278536144
aF1.1870351823044303
aF1.1849571991920747
aF1.1658877502894138
aF1.1750868176882305
aF1.1786476868327402
aF1.1822302025981892
aF1.1686485548129504
aF1.172222403604427
aF1.1700543632513154
aF1.1852176293457433
aF1.1830763147489125
aF1.1867390897171755
aF1.1845892000618907
aF1.176572321814614
aF1.186120996441281
aF1.1898392440790282
aF1.1758544282548848
aF1.173636292196639
aF1.1773503310959954
aF1.1870530418573124
aF1.1848493777908742
aF1.1766284265459963
aF1.1743772241992882
aF1.1600279204952455
aF1.175892549649868
aF1.1857789448225824
aF1.1896288764616167
aF1.1751422907948579
aF1.1605610215616495
aF1.170526807070766
aF1.162015358681401
aF1.1844543884993481
aF1.1697108246329335
aF1.1548692968870078
aF1.1587188612099644
aF1.1437412966114808
aF1.1475793546538011
aF1.1451166468960063
aF1.1426372992209293
aF1.1274021352313168
aF1.1440191735057013
aF1.1479236758043556
aF1.1196802027982256
aF1.1235279010896284
aF1.1403607804638607
aF1.1443066655173688
aF1.1548042704626336
aF1.1588279787220852
aF1.15630988228853
aF1.1471811200599364
aF1.137988070773395
aF1.148648818580788
aF1.159385174528659
aF1.130076873393194
aF1.1206914082358923
aF1.1179734435388207
aF1.1152359251388926
aF1.1124786412631527
aF1.1437412966114808
aF1.13423487544484
aF1.1383744187858793
aF1.1425442884517618
aF1.1260205149675528
aF1.109374794815564
aF1.1134835903519178
aF1.1315932212358941
aF1.1147819620757422
aF1.11895717541685
aF1.1090359350333128
aF1.1132209762975895
aF1.1316725978647686
aF1.1145420348294386
aF1.1116242427535248
aF1.1158833394690555
aF1.0984943881741034
aF1.0954808392530813
aF1.09244392948771
aF1.104005981971004
aF1.1009786476868328
aF1.1052962110110949
aF1.1318407263149046
aF1.1363144050750427
aF1.1408235892221659
aF1.1303965632133388
aF1.1349181494661922
aF1.1319298546499164
aF1.1364940879347951
aF1.1334879767170458
aF1.1151809738737957
aF1.1120633306703465
aF1.1012192987573655
aF1.1057510654189182
aF1.1180847622128762
aF1.1227241180726806
aF1.103914590747331
aF1.1085334802483657
aF1.1131911839468884
aF1.117888193161854
aF1.1305868870257556
aF1.1114106155826455
aF1.124190163336071
aF1.1290150138224917
aF1.1257823045772488
aF1.1225216065073715
aF1.1192325545412347
aF1.124120032945345
aF1.112567896609852
aF1.117469076771129
aF1.1140994551695904
aF1.1190510083036773
aF1.1324351804778852
aF1.112235290362734
aF1.1087813792440127
aF1.1052962110110949
aF1.1103202846975089
aF1.0982303904840833
aF1.1032681445688728
aF1.1256703347163686
aF1.1569790431000395
aF1.1536207895390218
aF1.1326703695080986
aF1.1203448448699314
aF1.1079030416974418
aF1.1131537670135434
aF1.1274021352313168
aF1.1687581944184304
aF1.1382425403777718
aF1.116509360977874
aF1.140172062329406
aF1.1457338772675982
aF1.142139418044798
aF1.13850954543064
aF1.1534477291145484
aF1.140489722207468
aF1.1180071174377224
aF1.142509701532574
aF1.1672597864768683
aF1.1731849630579692
aF1.1887573534751978
aF1.1659457979742678
aF1.1525846571522913
aF1.168292368115354
aF1.1841637010676158
aF1.1903635110208493
aF1.2065180745457953
aF1.1930181325199118
aF1.2093586734307564
aF1.2158258321122042
aF1.20215819079325
aF1.1883427911897664
aF1.1335293207488784
aF1.1499912490519806
aF1.1356614915333776
aF1.1419358644147775
aF1.1274021352313168
aF1.1337004711823297
aF1.1611819744891838
aF1.157126485312745
aF1.1850533807829182
aF1.1488764616166751
aF1.1446803288747085
aF1.1187131014337728
aF1.1252172473723412
aF1.131797465193232
aF1.1495080594515388
aF1.1451915180357557
aF1.1408235892221659
aF1.1139003132524985
aF1.109291257556918
aF1.0932384341637011
aF1.1342765384949223
aF1.0951247734864529
aF1.0902860155529195
aF1.1087288079397009
aF1.103914590747331
aF1.1226750822534077
aF1.117888193161854
aF1.1369766756579098
aF1.1322200930741857
aF1.1395247388359546
aF1.146924250127097
aF1.1175772800223294
aF1.112567896609852
aF1.095048431571257
aF1.0898220640569396
aF1.0845255439585373
aF1.1172453592382419
aF1.1248456678044885
aF1.1454199775751963
aF1.20515400662658
aF1.2135231316725978
aF1.195729537366548
aF1.1909177484837854
aF1.159385174528659
aF1.2079308591764109
aF1.1895849868148185
aF1.1845892000618907
aF1.165805127672286
aF1.188193426836927
aF1.1552392249901147
aF1.1778828278536144
aF1.1726112434110187
aF1.1672597864768683
aF1.17617016652631
aF1.1996715028743499
aF1.208971281966399
aF1.2037366548042705
aF1.183624288956763
aF1.178105405863413
aF1.2025622775800713
aF1.1668005969463895
aF1.1610103289644997
aF1.170526807070766
aF1.149142672274345
aF1.1274021352313168
aF1.1052962110110949
aF1.1305868870257556
aF1.1402500228123003
aF1.1662780709289484
aF1.1600804579916448
aF1.1372916276456266
aF1.1473561553239064
aF1.1911540416878497
aF1.1849571991920747
aF1.195729537366548
aF1.1549838388455385
aF1.1308817714511665
aF1.1414507599694017
aF1.1344927146981805
aF1.163192679206914
aF1.15630988228853
aF1.1675361918253118
aF1.1974042285953528
aF1.1720517247454283
aF1.2025622775800713
aF1.2336892052194544
aF1.2079308591764109
aF1.2591260960487216
aF1.291814946619217
aF1.2065180745457953
aF1.2393427727720148
aF1.2526690391459077
aF1.2458610552375058
aF1.2389034453091392
aF1.2526690391459077
aF1.2667439721700189
aF1.2597864768683273
aF1.2742667812001474
aF1.289083836795498
aF1.28214360477287
aF1.2750381291306558
aF1.2677614372079065
aF1.2832219425397102
aF1.2526690391459077
aF1.2448398576512456
aF1.21302761385648
aF1.3249384067889405
aF1.2689374682257246
aF1.21146282075295
aF1.2276156583629894
aF1.1680292392036165
aF1.1582898649636817
aF1.1743772241992882
aF1.1909177484837854
aF1.2079308591764109
aF1.2526690391459077
aF1.326355453213314
aF1.4022414617304935
aF1.3665480427046264
aF1.3586641116890228
aF1.291814946619217
aF1.2824944924589052
aF1.3334863965101595
aF1.4169535032961904
aF1.377935943060498
aF1.401290789553049
aF1.3930543624984661
aF1.4174939127177375
aF1.3756990340620232
aF1.4348754448398575
aF1.461447212336892
aF1.4535687907070436
aF1.409252669039146
aF1.4368850743144232
aF1.4656227758007119
aF1.4188394218897524
aF1.409252669039146
aF1.4392367683804044
aF1.4296766207643508
aF1.377935943060498
aF1.3665480427046264
aF1.398328229744269
aF1.3868835790543976
aF1.374880652721118
aF1.4562277580071175
aF1.349028196003285
aF1.3845289380033716
aF1.472732518995864
aF1.461447212336892
aF1.449517031011693
aF1.4368850743144232
aF1.4234875444839856
aF1.409252669039146
aF1.4547124325565377
aF1.4405693950177938
aF1.490244201742545
aF1.543467208947636
aF1.531039936733887
aF1.5176567205036957
aF1.6535231316725978
aF1.6441281138790036
aF1.6339161380164011
aF1.708185053380783
aF1.7000508388408746
aF1.691103202846975
aF1.6812137104326652
aF1.774614472123369
aF1.8790035587188612
aF1.7615658362989324
aF1.7537366548042703
aF1.7447890188103712
aF1.8790035587188612
aF1.8790035587188612
aF1.708185053380783
aF1.8790035587188612
aF1.8790035587188612
aF1.8790035587188612
aF1.8790035587188612
aF1.8790035587188612
aF1.8790035587188612
atp4
.