(S'vowel.scale.s1'
p0
(lp1
I382
aI497
aI518
aI349
aI480
aI257
aI259
aI259
aI367
aI502
aI163
aI100
aI484
aI3
aI418
aI461
aI359
aI139
aI264
aI214
aI245
aI115
aI340
aI428
aI350
aI376
aI186
aI108
aI116
aI237
aI0
aI4
aI474
aI313
aI276
aI485
aI353
aI37
aI101
aI424
aI182
aI131
aI16
aI126
aI290
aI117
aI56
aI449
aI381
aI45
aI35
aI296
aI453
aI86
aI312
aI138
aI9
aI427
aI35
aI188
aI13
aI407
aI397
aI460
aI425
aI190
aI151
aI336
aI219
aI209
aI101
aI197
aI51
aI342
aI262
aI377
aI405
aI208
aI90
aI317
aI320
aI138
aI115
aI349
aI331
aI430
aI305
aI113
aI153
aI22
aI246
aI80
aI271
aI120
aI228
aI108
aI346
aI40
aI268
aI400
aI366
aI130
aI213
aI313
aI227
aI336
aI218
aI340
aI357
aI101
aI194
aI83
aI17
aI104
aI276
aI12
aI36
aI330
aI25
aI101
aI15
aI311
aI135
aI352
aI277
aI271
aI225
aI110
aI110
aI240
aI117
aI155
aI19
aI12
aI372
aI235
aI44
aI175
aI258
aI361
aI77
aI249
aI342
aI133
aI246
aI164
aI282
aI268
aI146
aI134
aI356
aI37
aI140
aI172
aI266
aI253
aI90
aI144
aI160
aI351
aI29
aI181
aI235
aI285
aI174
aI4
aI39
aI141
aI247
aI243
aI175
aI333
aI332
aI73
aI34
aI210
aI325
aI269
aI95
aI305
aI267
aI27
aI120
aI311
aI245
aI220
aI232
aI112
aI282
aI70
aI314
aI274
aI213
aI162
aI243
aI211
aI97
aI150
aI125
aI180
aI265
aI245
aI218
aI79
aI49
aI88
aI275
aI97
aI87
aI56
aI133
aI83
aI11
aI173
aI225
aI214
aI302
aI136
aI256
aI86
aI182
aI83
aI287
aI250
aI163
aI105
aI222
aI118
aI131
aI243
aI271
aI225
aI153
aI37
aI158
aI84
aI225
aI19
aI80
aI137
aI250
aI212
aI93
aI271
aI226
aI8
aI237
aI208
aI50
aI104
aI188
aI158
aI70
aI93
aI7
aI132
aI219
aI131
aI198
aI101
aI14
aI95
aI0
aI134
aI161
aI155
aI241
aI227
aI245
aI99
aI200
aI176
aI247
aI97
aI94
aI212
aI86
aI136
aI80
aI28
aI102
aI178
aI180
aI127
aI28
aI174
aI52
aI194
aI198
aI206
aI120
aI168
aI67
aI171
aI99
aI204
aI54
aI219
aI9
aI92
aI149
aI38
aI68
aI76
aI193
aI10
aI188
aI94
aI12
aI186
aI60
aI142
aI157
aI157
aI160
aI66
aI20
aI69
aI94
aI180
aI50
aI179
aI143
aI151
aI72
aI110
aI149
aI26
aI35
aI74
aI79
aI61
aI171
aI46
aI57
aI162
aI33
aI20
aI38
aI67
aI18
aI110
aI147
aI111
aI152
aI6
aI103
aI92
aI101
aI27
aI77
aI23
aI42
aI26
aI99
aI15
aI137
aI106
aI50
aI156
aI77
aI10
aI44
aI102
aI38
aI159
aI147
aI50
aI51
aI109
aI54
aI82
aI70
aI47
aI91
aI36
aI114
aI92
aI87
aI4
aI95
aI9
aI6
aI14
aI19
aI9
aI61
aI33
aI50
aI36
aI39
aI41
aI130
aI87
aI49
aI2
aI28
aI47
aI1
aI45
aI88
aI88
aI32
aI89
aI52
aI26
aI11
aI9
aI91
aI114
aI13
aI63
aI55
aI39
aI113
aI85
aI19
aI11
aI97
aI67
aI77
aI76
aI75
aI65
aI5
aI29
aI62
aI30
aI89
aI65
aI7
aI87
aI50
aI71
aI52
aI13
aI70
aI13
aI56
aI26
aI61
aI68
aI46
aI17
aI47
aI39
aI77
aI70
aI23
aI5
aI73
aI64
aI36
aI70
aI33
aI69
aI60
aI40
aI26
aI46
aI13
aI0
aI10
aI11
aI1
aI44
aI52
aI8
aI48
aI4
aI27
aI28
aI24
aI46
aI8
aI21
aI9
aI31
aI14
aI11
aI25
aI24
aI30
aI19
aI22
aI6
aI6
aI3
aI1
aI1
aI10
aI15
aI32
aI24
aI29
aI7
aI10
aI12
aI16
aI18
aI18
aI0
aI5
aI11
aI23
aI13
aI7
aI17
aI0
aI7
aI13
aI2
aI12
aI12
aI5
aI4
aI10
aI4
aI0
aI0
aI7
aI3
aI0
a(lp2
F1.0326797385620916
aF1.0522875816993464
aF1.0718954248366013
aF1.0784313725490198
aF1.0915032679738563
aF1.0980392156862746
aF1.1111111111111112
aF1.1176470588235294
aF1.1241830065359477
aF1.1241830065359477
aF1.130718954248366
aF1.1372549019607843
aF1.1437908496732025
aF1.1568627450980393
aF1.1568627450980393
aF1.1633986928104576
aF1.1699346405228759
aF1.1764705882352942
aF1.1830065359477124
aF1.1895424836601307
aF1.196078431372549
aF1.196078431372549
aF1.196078431372549
aF1.2026143790849675
aF1.2026143790849675
aF1.2026143790849675
aF1.2026143790849675
aF1.2091503267973855
aF1.2091503267973855
aF1.215686274509804
aF1.222222222222222
aF1.2287581699346406
aF1.2418300653594772
aF1.2483660130718954
aF1.2483660130718954
aF1.2483660130718954
aF1.2483660130718954
aF1.2483660130718954
aF1.2483660130718954
aF1.2483660130718954
aF1.2483660130718954
aF1.2483660130718954
aF1.2549019607843137
aF1.2549019607843137
aF1.2549019607843137
aF1.2549019607843137
aF1.2549019607843137
aF1.2549019607843137
aF1.2549019607843137
aF1.2549019607843137
aF1.2549019607843137
aF1.2549019607843137
aF1.2549019607843137
aF1.2549019607843137
aF1.2614379084967322
aF1.2679738562091503
aF1.2679738562091503
aF1.2679738562091503
aF1.2745098039215688
aF1.2745098039215688
aF1.2810457516339868
aF1.2810457516339868
aF1.2810457516339868
aF1.2875816993464053
aF1.2941176470588234
aF1.2941176470588234
aF1.3006535947712419
aF1.3071895424836601
aF1.3071895424836601
aF1.3137254901960784
aF1.326797385620915
aF1.3333333333333335
aF1.352941176470588
aF1.3594771241830066
aF1.3660130718954249
aF1.3660130718954249
aF1.3660130718954249
aF1.3660130718954249
aF1.3660130718954249
aF1.3660130718954249
aF1.3660130718954249
aF1.3660130718954249
aF1.3660130718954249
aF1.3660130718954249
aF1.3660130718954249
aF1.3725490196078431
aF1.3725490196078431
aF1.3725490196078431
aF1.3725490196078431
aF1.3725490196078431
aF1.3725490196078431
aF1.3660130718954249
aF1.3660130718954249
aF1.3660130718954249
aF1.3725490196078431
aF1.3725490196078431
aF1.3725490196078431
aF1.3790849673202614
aF1.3790849673202614
aF1.3790849673202614
aF1.3790849673202614
aF1.3790849673202614
aF1.3856209150326797
aF1.3921568627450982
aF1.3986928104575163
aF1.3986928104575163
aF1.3986928104575163
aF1.3986928104575163
aF1.3986928104575163
aF1.4052287581699348
aF1.4052287581699348
aF1.4052287581699348
aF1.4052287581699348
aF1.411764705882353
aF1.411764705882353
aF1.411764705882353
aF1.411764705882353
aF1.411764705882353
aF1.411764705882353
aF1.4183006535947713
aF1.4248366013071896
aF1.4248366013071896
aF1.4183006535947713
aF1.4183006535947713
aF1.4248366013071896
aF1.4248366013071896
aF1.4248366013071896
aF1.4248366013071896
aF1.4248366013071896
aF1.4248366013071896
aF1.4248366013071896
aF1.4313725490196079
aF1.4313725490196079
aF1.4379084967320261
aF1.4379084967320261
aF1.4379084967320261
aF1.4379084967320261
aF1.4313725490196079
aF1.4313725490196079
aF1.4379084967320261
aF1.4444444444444444
aF1.4444444444444444
aF1.4379084967320261
aF1.457516339869281
aF1.4640522875816995
aF1.4640522875816995
aF1.4705882352941178
aF1.4836601307189543
aF1.4836601307189543
aF1.4901960784313726
aF1.4967320261437909
aF1.4967320261437909
aF1.5032679738562091
aF1.5098039215686274
aF1.5098039215686274
aF1.516339869281046
aF1.522875816993464
aF1.5294117647058825
aF1.5359477124183005
aF1.542483660130719
aF1.5490196078431373
aF1.5490196078431373
aF1.5490196078431373
aF1.5490196078431373
aF1.5490196078431373
aF1.5555555555555556
aF1.5555555555555556
aF1.5555555555555556
aF1.5555555555555556
aF1.5490196078431373
aF1.5490196078431373
aF1.5490196078431373
aF1.5490196078431373
aF1.5490196078431373
aF1.542483660130719
aF1.542483660130719
aF1.5490196078431373
aF1.5490196078431373
aF1.5490196078431373
aF1.5490196078431373
aF1.542483660130719
aF1.5359477124183005
aF1.5359477124183005
aF1.5294117647058825
aF1.5294117647058825
aF1.5294117647058825
aF1.5294117647058825
aF1.522875816993464
aF1.522875816993464
aF1.516339869281046
aF1.522875816993464
aF1.516339869281046
aF1.522875816993464
aF1.5294117647058825
aF1.5294117647058825
aF1.522875816993464
aF1.5359477124183005
aF1.5359477124183005
aF1.5359477124183005
aF1.542483660130719
aF1.542483660130719
aF1.542483660130719
aF1.542483660130719
aF1.5490196078431373
aF1.5555555555555556
aF1.5555555555555556
aF1.5555555555555556
aF1.562091503267974
aF1.562091503267974
aF1.5686274509803921
aF1.5751633986928106
aF1.5686274509803921
aF1.5686274509803921
aF1.5686274509803921
aF1.5751633986928106
aF1.5816993464052287
aF1.5816993464052287
aF1.5882352941176472
aF1.5816993464052287
aF1.5816993464052287
aF1.5816993464052287
aF1.5816993464052287
aF1.5751633986928106
aF1.5751633986928106
aF1.5751633986928106
aF1.5751633986928106
aF1.5751633986928106
aF1.5816993464052287
aF1.5947712418300652
aF1.6013071895424837
aF1.6013071895424837
aF1.6013071895424837
aF1.6143790849673203
aF1.6143790849673203
aF1.6209150326797388
aF1.6274509803921569
aF1.6209150326797388
aF1.6274509803921569
aF1.6274509803921569
aF1.6274509803921569
aF1.6274509803921569
aF1.6274509803921569
aF1.6339869281045754
aF1.6405228758169934
aF1.647058823529412
aF1.65359477124183
aF1.673202614379085
aF1.673202614379085
aF1.673202614379085
aF1.6862745098039216
aF1.6797385620915033
aF1.6797385620915033
aF1.673202614379085
aF1.673202614379085
aF1.6666666666666667
aF1.6601307189542485
aF1.6601307189542485
aF1.65359477124183
aF1.65359477124183
aF1.65359477124183
aF1.647058823529412
aF1.65359477124183
aF1.65359477124183
aF1.6601307189542485
aF1.6601307189542485
aF1.6666666666666667
aF1.673202614379085
aF1.6797385620915033
aF1.6862745098039216
aF1.6862745098039216
aF1.6862745098039216
aF1.6862745098039216
aF1.6928104575163399
aF1.6928104575163399
aF1.6862745098039216
aF1.6797385620915033
aF1.6797385620915033
aF1.6862745098039216
aF1.6862745098039216
aF1.6928104575163399
aF1.6928104575163399
aF1.6993464052287581
aF1.6993464052287581
aF1.6993464052287581
aF1.6993464052287581
aF1.6928104575163399
aF1.6928104575163399
aF1.6928104575163399
aF1.6928104575163399
aF1.6993464052287581
aF1.6993464052287581
aF1.7058823529411766
aF1.7058823529411766
aF1.7058823529411766
aF1.7058823529411766
aF1.7124183006535947
aF1.7058823529411766
aF1.7058823529411766
aF1.7189542483660132
aF1.7189542483660132
aF1.7124183006535947
aF1.7189542483660132
aF1.7124183006535947
aF1.7124183006535947
aF1.7124183006535947
aF1.7189542483660132
aF1.7124183006535947
aF1.7124183006535947
aF1.7124183006535947
aF1.7254901960784315
aF1.7189542483660132
aF1.7124183006535947
aF1.7058823529411766
aF1.7124183006535947
aF1.7058823529411766
aF1.7124183006535947
aF1.7124183006535947
aF1.7058823529411766
aF1.6993464052287581
aF1.7058823529411766
aF1.7124183006535947
aF1.7124183006535947
aF1.7189542483660132
aF1.7124183006535947
aF1.7189542483660132
aF1.7189542483660132
aF1.7254901960784315
aF1.7254901960784315
aF1.7320261437908497
aF1.7320261437908497
aF1.7320261437908497
aF1.738562091503268
aF1.738562091503268
aF1.738562091503268
aF1.7450980392156863
aF1.738562091503268
aF1.7320261437908497
aF1.7320261437908497
aF1.738562091503268
aF1.738562091503268
aF1.7450980392156863
aF1.738562091503268
aF1.7320261437908497
aF1.7450980392156863
aF1.7450980392156863
aF1.7450980392156863
aF1.7450980392156863
aF1.7450980392156863
aF1.7450980392156863
aF1.7450980392156863
aF1.7450980392156863
aF1.7516339869281046
aF1.7581699346405228
aF1.7516339869281046
aF1.7581699346405228
aF1.7712418300653596
aF1.7712418300653596
aF1.7647058823529411
aF1.777777777777778
aF1.777777777777778
aF1.7712418300653596
aF1.777777777777778
aF1.777777777777778
aF1.7647058823529411
aF1.7516339869281046
aF1.7450980392156863
aF1.7516339869281046
aF1.7516339869281046
aF1.7516339869281046
aF1.7450980392156863
aF1.7320261437908497
aF1.7320261437908497
aF1.7320261437908497
aF1.7320261437908497
aF1.7254901960784315
aF1.7254901960784315
aF1.7254901960784315
aF1.7254901960784315
aF1.7189542483660132
aF1.7189542483660132
aF1.7124183006535947
aF1.7058823529411766
aF1.6928104575163399
aF1.6862745098039216
aF1.6797385620915033
aF1.673202614379085
aF1.6601307189542485
aF1.6666666666666667
aF1.6601307189542485
aF1.6666666666666667
aF1.6601307189542485
aF1.6797385620915033
aF1.6928104575163399
aF1.7124183006535947
aF1.7124183006535947
aF1.7124183006535947
aF1.7124183006535947
aF1.7058823529411766
aF1.7124183006535947
aF1.7058823529411766
aF1.7058823529411766
aF1.7058823529411766
aF1.7058823529411766
aF1.6993464052287581
aF1.6928104575163399
aF1.6928104575163399
aF1.6928104575163399
aF1.6797385620915033
aF1.6928104575163399
aF1.6928104575163399
aF1.6862745098039216
aF1.6928104575163399
aF1.7058823529411766
aF1.6993464052287581
aF1.6862745098039216
aF1.6797385620915033
aF1.6797385620915033
aF1.673202614379085
aF1.6666666666666667
aF1.6666666666666667
aF1.6601307189542485
aF1.65359477124183
aF1.647058823529412
aF1.65359477124183
aF1.65359477124183
aF1.65359477124183
aF1.6601307189542485
aF1.6601307189542485
aF1.6666666666666667
aF1.673202614379085
aF1.673202614379085
aF1.673202614379085
aF1.673202614379085
aF1.673202614379085
aF1.673202614379085
aF1.6666666666666667
aF1.6666666666666667
aF1.6666666666666667
aF1.6666666666666667
aF1.673202614379085
aF1.6666666666666667
aF1.6601307189542485
aF1.647058823529412
aF1.6339869281045754
aF1.6274509803921569
aF1.6405228758169934
aF1.647058823529412
aF1.647058823529412
aF1.647058823529412
aF1.65359477124183
aF1.6405228758169934
aF1.6339869281045754
aF1.65359477124183
aF1.6405228758169934
aF1.6601307189542485
aF1.6339869281045754
aF1.6405228758169934
aF1.647058823529412
aF1.6274509803921569
aF1.6339869281045754
aF1.6209150326797388
aF1.6143790849673203
aF1.65359477124183
aF1.6274509803921569
aF1.6078431372549018
aF1.5882352941176472
aF1.6339869281045754
aF1.6143790849673203
aF1.5947712418300652
aF1.5947712418300652
aF1.5947712418300652
aF1.5947712418300652
aF1.5751633986928106
aF1.5490196078431373
aF1.542483660130719
aF1.5490196078431373
aF1.522875816993464
aF1.516339869281046
aF1.516339869281046
aF1.4967320261437909
aF1.4640522875816995
aF1.4509803921568627
aF1.4444444444444444
aF1.477124183006536
aF1.4901960784313726
aF1.4967320261437909
aF1.522875816993464
aF1.516339869281046
aF1.5359477124183005
aF1.5359477124183005
aF1.5032679738562091
aF1.5032679738562091
aF1.4901960784313726
aF1.5032679738562091
aF1.4967320261437909
aF1.4509803921568627
aF1.3986928104575163
aF1.352941176470588
aF1.3006535947712419
aF1.2679738562091503
aF1.2549019607843137
aF1.2287581699346406
aF1.2352941176470589
aF1.2614379084967322
aF1.2679738562091503
aF1.2549019607843137
aF1.2026143790849675
aF1.2026143790849675
aF1.1830065359477124
aF1.2026143790849675
aF1.1830065359477124
aF1.1372549019607843
aF1.0718954248366013
aF1.019607843137255
aF1.019607843137255
aF1.0130718954248366
aF1.0326797385620916
aF1.0
aF0.9803921568627451
aF0.9411764705882353
aF0.8823529411764706
aF0.8431372549019608
aF0.8627450980392157
a(lp3
F1.005463004855254
aF1.007374531480454
aF1.016451448906965
aF1.0148053570943467
aF1.016745711505617
aF1.02589274757639
aF1.0278618315448664
aF1.0370654256775254
aF1.0426840557052641
aF1.05195179928276
aF1.05762095858257
aF1.0596706116030787
aF1.0507825726427806
aF1.0455155988202225
aF1.0548791908597115
aF1.0679492882562278
aF1.0700392085854964
aF1.0574000418672806
aF1.0668605667382138
aF1.0467677305461374
aF1.0525384825959696
aF1.0657589354788797
aF1.0753109474648532
aF1.0625317742755467
aF1.0721153506010204
aF1.0742510385504247
aF1.0801457583054532
aF1.082306049822064
aF1.0844749998217076
aF1.0866526604639197
aF1.0850583930630044
aF1.075881069911606
aF1.0704626334519574
aF1.0688259109311742
aF1.0709939148073022
aF1.0731707317073171
aF1.079183306636902
aF1.081385721548406
aF1.0951247734864529
aF1.0973688816288432
aF1.1034805293502963
aF1.109617327885418
aF1.1080309645228748
aF1.1180847622128762
aF1.1203996374969607
aF1.1227241180726806
aF1.1211518115432706
aF1.1274021352313168
aF1.1258330299630754
aF1.1321192989770543
aF1.1344927146981805
aF1.1368761027542689
aF1.1392695261284884
aF1.1456371908644534
aF1.144086733427129
aF1.142529706254901
aF1.144955459346737
aF1.13939577496782
aF1.137818786089886
aF1.136235057943243
aF1.134644547234944
aF1.1451437997342415
aF1.1516473424405924
aF1.1379310344827587
aF1.1282137998355148
aF1.1428571428571428
aF1.120880647825785
aF1.1314869255763578
aF1.142139418044798
aF1.1446331722326686
aF1.1471378400056067
aF1.1578947368421053
aF1.1604395604395605
aF1.1671343690720681
aF1.1697108246329335
aF1.1722986804396436
aF1.174898012325319
aF1.1816844602609726
aF1.1843162742036475
aF1.186959837315709
aF1.1896152284506436
aF1.1838565022421526
aF1.1865168539325843
aF1.1849571991920747
aF1.187632046142847
aF1.1860678572003671
aF1.1887573534751978
aF1.195729537366548
aF1.1941731045160873
aF1.2011894895919661
aF1.1996384276488838
aF1.2023898919324822
aF1.200834458215732
aF1.1992718566016694
aF1.1803440368857512
aF1.1787267694741004
aF1.1814616343684718
aF1.1798394438467268
aF1.1869696140158774
aF1.185352712275917
aF1.1837282372256996
aF1.1865069420079195
aF1.1848775382038936
aF1.178808836366078
aF1.1727114409025516
aF1.1754903779663017
aF1.178282516631305
aF1.1855617691916625
aF1.1839067768538887
aF1.1822438658924892
aF1.1895849868148185
aF1.1969614015877361
aF1.1998456459289113
aF1.1755118881840219
aF1.1829078093629635
aF1.1857789448225824
aF1.1932358365586928
aF1.1869802968492318
aF1.1990707306249946
aF1.1974042285953528
aF1.2003462537270366
aF1.2033027715933595
aF1.2109134045077106
aF1.2092597160071878
aF1.2075978206158438
aF1.215275933499761
aF1.213620752389489
aF1.2166548042704626
aF1.2197040644315416
aF1.2133264185697168
aF1.2021836370644603
aF1.1862396204033214
aF1.1844857876480923
aF1.187492096753798
aF1.180951346065035
aF1.1839639770498946
aF1.1821863822118668
aF1.1852176293457433
aF1.178603774620571
aF1.1767986205378436
aF1.1749841374934482
aF1.1780281378496489
aF1.1810879511947128
aF1.164590747330961
aF1.1627254397294258
aF1.1756069385701775
aF1.1786925210861097
aF1.1768495973028656
aF1.1849125343899944
aF1.1930181325199118
aF1.1762462595693668
aF1.199363973650337
aF1.1724982206405694
aF1.1505128741888213
aF1.1687099882648144
aF1.1718516817816553
aF1.1648809124133102
aF1.1680292392036165
aF1.155918178398866
aF1.148847284542782
aF1.1519776586151056
aF1.1653929175660696
aF1.1634378199190758
aF1.15630988228853
aF1.149142672274345
aF1.1471264819802993
aF1.150304117664455
aF1.1587188612099644
aF1.156712497150051
aF1.1651921509373944
aF1.157929363916385
aF1.1611819744891838
aF1.153866974086512
aF1.1518185656553472
aF1.1657274202816732
aF1.1637010676156583
aF1.1670164552726832
aF1.1596136248093545
aF1.1683202643037045
aF1.1716775064425082
aF1.1750540986800948
aF1.1838808549153519
aF1.165526845118366
aF1.1743772241992882
aF1.1778010645030763
aF1.1812449272647811
aF1.1791987142693148
aF1.1826669457818715
aF1.1806128554782225
aF1.184105792920466
aF1.1876194599617729
aF1.1911540416878497
aF1.1891007595474585
aF1.1814094231465893
aF1.1680292392036165
aF1.1715473995626635
aF1.1750868176882305
aF1.1729537366548042
aF1.1650964315460417
aF1.1686485548129504
aF1.1779685918573901
aF1.1642905486540183
aF1.1736545305228578
aF1.1714775273494134
aF1.175104392759164
aF1.1729183705046309
aF1.1648651345328767
aF1.168505338078292
aF1.1721683642164682
aF1.1758544282548848
aF1.1914186602602244
aF1.1951889724762377
aF1.1930181325199118
aF1.1788652900242538
aF1.1766284265459963
aF1.1743772241992882
aF1.1841951688388965
aF1.1880151532545058
aF1.2222644508171232
aF1.2262328418912047
aF1.2241065529113102
aF1.2219663666178215
aF1.2259728137214867
aF1.2238246862708373
aF1.2216623797611077
aF1.231929485517664
aF1.2360222745060947
aF1.22135231316726
aF1.2317213963508256
aF1.229549308557644
aF1.2147093712930013
aF1.2124651341733192
aF1.2038361782978468
aF1.2143220277434819
aF1.2312924343823253
aF1.2226393019061084
aF1.2332978684374656
aF1.2375506197079396
aF1.2158258321122042
aF1.2200474495848161
aF1.2373925874490064
aF1.2351491924445661
aF1.232890054317288
aF1.2239987970527793
aF1.1951259384077562
aF1.2060271068372832
aF1.203632172844822
aF1.2012201321809863
aF1.2122603604637814
aF1.1895849868148185
aF1.1870961111039737
aF1.1913971839702924
aF1.2093950177935942
aF1.2138088682234978
aF1.218255054553987
aF1.2089177307933852
aF1.1787107194915365
aF1.1830763147489125
aF1.1874743679635926
aF1.1638604132363095
aF1.1682194410012394
aF1.1867390897171755
aF1.1699456120324985
aF1.1814946619217082
aF1.2002760375086263
aF1.2048572437586593
aF1.2238720497402544
aF1.1996715028743499
aF1.204303439178884
aF1.2308201605561533
aF1.2502319398479584
aF1.2477758007117439
aF1.2305631149256855
aF1.2058172443747024
aF1.2031564289029864
aF1.2153872225046602
aF1.2202294026740015
aF1.2100782918149466
aF1.2224842430219096
aF1.1971071059579843
aF1.1943463915743369
aF1.2068396840552036
aF1.2117655603166535
aF1.2090309783559885
aF1.22173893941391
aF1.2423164024587512
aF1.231877851774191
aF1.2291814946619217
aF1.2500483926204977
aF1.255300696791172
aF1.2526690391459077
aF1.2102056818867244
aF1.2153554932990083
aF1.2205493201934483
aF1.2096589433812412
aF1.1986746840103082
aF1.195729537366548
aF1.2090979421321366
aF1.1815568229498516
aF1.1537741150028096
aF1.1671343690720681
aF1.1556703303624856
aF1.1691577698695137
aF1.1911540416878497
aF1.213347589486619
aF1.1934211791863039
aF1.1903189964734868
aF1.1871886120996442
aF1.2183493394432798
aF1.1894609683633157
aF1.1949423553142988
aF1.2004744958481612
aF1.2147976495903334
aF1.2029134931985233
aF1.2173825873389805
aF1.1876720606996576
aF1.202206068374627
aF1.1989832231825115
aF1.1867390897171755
aF1.1924445661100465
aF1.1618959203672186
aF1.1857789448225824
aF1.1732314903220207
aF1.1974042285953528
aF1.1940465964272566
aF1.218561713822628
aF1.2339724863228343
aF1.1743772241992882
aF1.1236252436560024
aF1.1387900355871887
aF1.1922611413190745
aF1.1599970949233787
aF1.1852176293457433
aF1.181641413214954
aF1.1877639075839432
aF1.193950177935943
aF1.210038940955078
aF1.2065180745457953
aF1.1830763147489125
aF1.1893692738699175
aF1.1756332426208917
aF1.1718516817816553
aF1.1680292392036165
aF1.1743772241992882
aF1.1807945860801587
aF1.1872824684212586
aF1.152317099545821
aF1.1274021352313168
aF1.1441976977673514
aF1.1611819744891838
aF1.1783581639423366
aF1.1743772241992882
aF1.1810879511947128
aF1.209473555037428
aF1.2490486083969308
aF1.2235372010262353
aF1.2306923893363302
aF1.2268787942223154
aF1.1896649750468529
aF1.219115404168785
aF1.2376670147249984
aF1.2224842430219096
aF1.2185053380782918
aF1.2488499262216823
aF1.2680392114053665
aF1.287465401344405
aF1.2604495921840808
aF1.2448398576512456
aF1.2290337742563622
aF1.2368124690301365
aF1.2686266065235623
aF1.2767588283602518
aF1.248628171277695
aF1.2323335027961362
aF1.2526690391459077
aF1.2732721483423861
aF1.2817044142254483
aF1.2902491103202849
aF1.2862977381833816
aF1.294988939117053
aF1.2910160505483332
aF1.2483790766830791
aF1.2569885875567555
aF1.265717674970344
aF1.208869422392554
aF1.2306150067665782
aF1.2393427727720148
aF1.2347737671581087
aF1.2436570316700377
aF1.2254371035123008
aF1.2618126087747097
aF1.2849068453003976
aF1.2248319493871096
aF1.1778828278536144
aF1.2149947823294893
aF1.2241992882562278
aF1.2192007823748334
aF1.1996715028743499
aF1.194405362906563
aF1.1890569395017794
aF1.183624288956763
aF1.163192679206914
aF1.1724982206405694
aF1.1516473424405924
aF1.1610103289644997
aF1.155125138556677
aF1.1336137172436105
aF1.1430604982206407
aF1.121086156882682
aF1.162434404970143
aF1.1723697417647596
aF1.1662780709289484
aF1.2090979421321366
aF1.2197040644315416
aF1.2304979057096967
aF1.1911540416878497
aF1.2018851591805328
aF1.2298932384341636
aF1.2584152273988705
aF1.21787267694741
aF1.176572321814614
aF1.2408514067011347
aF1.2347737671581087
aF1.2466465918423213
aF1.240507203814394
aF1.2895122461796107
aF1.3208836897924667
aF1.315302491103203
aF1.3096085409252671
aF1.2846248819812622
aF1.2784972667571632
aF1.2526690391459077
aF1.2460760442030343
aF1.2793215718936928
aF1.2728733784869704
aF1.266285006962711
aF1.2595518360642917
aF1.2944246737841043
aF1.2667439721700189
aF1.2384341637010676
aF1.2310712970916677
aF1.2235372010262353
aF1.1716139836717605
aF1.1408235892221659
aF1.177207048835913
aF1.1686485548129504
aF1.0902860155529195
aF1.1743772241992882
aF1.1416730483355106
aF1.084040514645497
aF1.1225216065073715
aF1.0631204345383032
aF1.1274021352313168
aF1.2188131191689913
aF1.2355091892945937
aF1.2526690391459077
aF1.2438474261941759
aF1.2616166751398068
aF1.2526690391459077
aF1.2434582373874816
aF1.290062144792054
aF1.2811387900355873
aF1.3297563646318096
aF1.291814946619217
aF1.312319945771903
aF1.3031798874985652
aF1.2937401551834782
aF1.3466192170818507
aF1.3694432716086615
aF1.3930543624984661
aF1.3845289380033716
aF1.3756990340620232
aF1.3665480427046264
aF1.3918544879398973
aF1.4181158933727256
aF1.3731179852176294
aF1.4368850743144232
aF1.3528825622775802
aF1.3421453990849008
aF1.3701067615658364
aF1.3592791701370486
aF1.3071329104131209
aF1.2526690391459077
aF1.3238434163701067
aF1.3546304725647602
aF1.2974072191154042
aF1.329051297630414
aF1.409252669039146
aF1.3008486175745961
aF1.2856340138602735
aF1.4219486390304896
aF1.461447212336892
aF1.395831215048297
aF1.326355453213314
aF1.4234875444839856
aF1.409252669039146
aF1.4547124325565377
aF1.4405693950177938
aF1.5550374279052646
aF1.543467208947636
aF1.3918544879398973
aF1.3731179852176294
aF1.4280427046263346
aF1.409252669039146
aF1.388828717313941
aF1.3665480427046264
aF1.4316217590238942
aF1.503202846975089
aF1.6812137104326652
aF1.5658362989323842
aF1.547414695415533
aF1.6441281138790036
aF1.62846975088968
aF1.7447890188103712
aF1.734464823432795
aF1.8790035587188612
aF1.8790035587188612
aF1.8790035587188612
aF1.8790035587188612
aF1.8790035587188612
aF1.8790035587188612
aF1.8790035587188612
aF1.8790035587188612
atp4
.